---
triple:          'arm64-apple-darwin'
binary-path:     AsteroidDash
relocations:
  - { offsetInCU: 0x68C5, offset: 0x68C5, size: 0x8, addend: 0x0, symName: __ZNSt3__124__put_character_sequenceB8ne180100IcNS_11char_traitsIcEEEERNS_13basic_ostreamIT_T0_EES7_PKS4_m, symObjAddr: 0x4FDC, symBinAddr: 0x100007D34, symSize: 0x1EC }
  - { offsetInCU: 0xB3F0, offset: 0xB3F0, size: 0x8, addend: 0x0, symName: __ZNSt3__17advanceB8ne180100IPNS_6vectorIbNS_9allocatorIbEEEEllvEEvRT_T0_, symObjAddr: 0xDE30, symBinAddr: 0x100010B88, symSize: 0x38 }
  - { offsetInCU: 0xD2AD, offset: 0xD2AD, size: 0x8, addend: 0x0, symName: __ZNSt3__1lsB8ne180100IcNS_11char_traitsIcEENS_9allocatorIcEEEERNS_13basic_ostreamIT_T0_EES9_RKNS_12basic_stringIS6_S7_T1_EE, symObjAddr: 0x1414, symBinAddr: 0x10000416C, symSize: 0x4C }
  - { offsetInCU: 0xD305, offset: 0xD305, size: 0x8, addend: 0x0, symName: __ZNSt3__1lsB8ne180100INS_11char_traitsIcEEEERNS_13basic_ostreamIcT_EES6_PKc, symObjAddr: 0x1460, symBinAddr: 0x1000041B8, symSize: 0x48 }
  - { offsetInCU: 0xD34B, offset: 0xD34B, size: 0x8, addend: 0x0, symName: __ZNSt3__14endlB8ne180100IcNS_11char_traitsIcEEEERNS_13basic_ostreamIT_T0_EES7_, symObjAddr: 0x14D4, symBinAddr: 0x10000422C, symSize: 0x58 }
  - { offsetInCU: 0xD38B, offset: 0xD38B, size: 0x8, addend: 0x0, symName: __ZNSt3__17getlineB8ne180100IcNS_11char_traitsIcEENS_9allocatorIcEEEERNS_13basic_istreamIT_T0_EES9_RNS_12basic_stringIS6_S7_T1_EE, symObjAddr: 0x1558, symBinAddr: 0x1000042B0, symSize: 0x5C }
  - { offsetInCU: 0xD3E3, offset: 0xD3E3, size: 0x8, addend: 0x0, symName: __ZNSt3__1neB8ne180100IPcEEbRKNS_11__wrap_iterIT_EES6_, symObjAddr: 0x16AC, symBinAddr: 0x100004404, symSize: 0x34 }
  - { offsetInCU: 0xD431, offset: 0xD431, size: 0x8, addend: 0x0, symName: __ZNSt3__1eqB8ne180100IcNS_11char_traitsIcEENS_9allocatorIcEEEEbRKNS_12basic_stringIT_T0_T1_EEPKS6_, symObjAddr: 0x1CB8, symBinAddr: 0x100004A10, symSize: 0xAC }
  - { offsetInCU: 0xD498, offset: 0xD498, size: 0x8, addend: 0x0, symName: __ZNSt3__1neB8ne180100IPKNS_6vectorIiNS_9allocatorIiEEEEEEbRKNS_11__wrap_iterIT_EESB_, symObjAddr: 0x1FD8, symBinAddr: 0x100004D30, symSize: 0x34 }
  - { offsetInCU: 0xD4DB, offset: 0xD4DB, size: 0x8, addend: 0x0, symName: __ZNSt3__1neB8ne180100IPKiEEbRKNS_11__wrap_iterIT_EES7_, symObjAddr: 0x2084, symBinAddr: 0x100004DDC, symSize: 0x34 }
  - { offsetInCU: 0xD51E, offset: 0xD51E, size: 0x8, addend: 0x0, symName: __ZNSt3__1neB8ne180100IPNS_6vectorIiNS_9allocatorIiEEEEEEbRKNS_11__wrap_iterIT_EESA_, symObjAddr: 0x2254, symBinAddr: 0x100004FAC, symSize: 0x34 }
  - { offsetInCU: 0xD561, offset: 0xD561, size: 0x8, addend: 0x0, symName: __ZNSt3__14fillB8ne180100INS_11__wrap_iterIPiEEiEEvT_S4_RKT0_, symObjAddr: 0x22A0, symBinAddr: 0x100004FF8, symSize: 0x44 }
  - { offsetInCU: 0xD5B7, offset: 0xD5B7, size: 0x8, addend: 0x0, symName: __ZNSt3__1neB8ne180100IPNS_6vectorIbNS_9allocatorIbEEEEEEbRKNS_11__wrap_iterIT_EESA_, symObjAddr: 0x2E24, symBinAddr: 0x100005B7C, symSize: 0x34 }
  - { offsetInCU: 0xD5FA, offset: 0xD5FA, size: 0x8, addend: 0x0, symName: __ZNSt3__1neB8ne180100ERKNS_14__bit_iteratorINS_6vectorIbNS_9allocatorIbEEEELb1ELm0EEES7_, symObjAddr: 0x2EE0, symBinAddr: 0x100005C38, symSize: 0x34 }
  - { offsetInCU: 0xD637, offset: 0xD637, size: 0x8, addend: 0x0, symName: __ZNSt3__1neB8ne180100ERKNS_14__bit_iteratorINS_6vectorIbNS_9allocatorIbEEEELb0ELm0EEES7_, symObjAddr: 0x3060, symBinAddr: 0x100005DB8, symSize: 0x34 }
  - { offsetInCU: 0xD674, offset: 0xD674, size: 0x8, addend: 0x0, symName: __ZNSt3__1eqB8ne180100IPcEEbRKNS_11__wrap_iterIT_EES6_, symObjAddr: 0x440C, symBinAddr: 0x100007164, symSize: 0x48 }
  - { offsetInCU: 0xD6B7, offset: 0xD6B7, size: 0x8, addend: 0x0, symName: __ZNSt3__1eqB8ne180100IPKNS_6vectorIiNS_9allocatorIiEEEEEEbRKNS_11__wrap_iterIT_EESB_, symObjAddr: 0x44F8, symBinAddr: 0x100007250, symSize: 0x48 }
  - { offsetInCU: 0xD6FA, offset: 0xD6FA, size: 0x8, addend: 0x0, symName: __ZNSt3__1eqB8ne180100IPKiEEbRKNS_11__wrap_iterIT_EES7_, symObjAddr: 0x4558, symBinAddr: 0x1000072B0, symSize: 0x48 }
  - { offsetInCU: 0xD73D, offset: 0xD73D, size: 0x8, addend: 0x0, symName: __ZNSt3__1eqB8ne180100IPNS_6vectorIiNS_9allocatorIiEEEEEEbRKNS_11__wrap_iterIT_EESA_, symObjAddr: 0x45B8, symBinAddr: 0x100007310, symSize: 0x48 }
  - { offsetInCU: 0xD780, offset: 0xD780, size: 0x8, addend: 0x0, symName: __ZNSt3__1eqB8ne180100IPNS_6vectorIbNS_9allocatorIbEEEEEEbRKNS_11__wrap_iterIT_EESA_, symObjAddr: 0x4618, symBinAddr: 0x100007370, symSize: 0x48 }
  - { offsetInCU: 0xD7C3, offset: 0xD7C3, size: 0x8, addend: 0x0, symName: __ZNSt3__112__to_addressB8ne180100INS_6vectorIiNS_9allocatorIiEEEEEEPT_S6_, symObjAddr: 0x4AB4, symBinAddr: 0x10000780C, symSize: 0x14 }
  - { offsetInCU: 0xD7F8, offset: 0xD7F8, size: 0x8, addend: 0x0, symName: __ZNSt3__119__libcpp_deallocateB8ne180100EPvmm, symObjAddr: 0x4B34, symBinAddr: 0x10000788C, symSize: 0x30 }
  - { offsetInCU: 0xD840, offset: 0xD840, size: 0x8, addend: 0x0, symName: __ZNSt3__127__do_deallocate_handle_sizeB8ne180100IJEEEvPvmDpT_, symObjAddr: 0x4B64, symBinAddr: 0x1000078BC, symSize: 0x28 }
  - { offsetInCU: 0xD87E, offset: 0xD87E, size: 0x8, addend: 0x0, symName: __ZNSt3__124__libcpp_operator_deleteB8ne180100IJPvEEEvDpT_, symObjAddr: 0x4B8C, symBinAddr: 0x1000078E4, symSize: 0x24 }
  - { offsetInCU: 0xD8B3, offset: 0xD8B3, size: 0x8, addend: 0x0, symName: __ZNSt3__112__to_addressB8ne180100IKcEEPT_S3_, symObjAddr: 0x4E1C, symBinAddr: 0x100007B74, symSize: 0x14 }
  - { offsetInCU: 0xD91B, offset: 0xD91B, size: 0x8, addend: 0x0, symName: __ZNSt3__116__pad_and_outputB8ne180100IcNS_11char_traitsIcEEEENS_19ostreambuf_iteratorIT_T0_EES6_PKS4_S8_S8_RNS_8ios_baseES4_, symObjAddr: 0x5218, symBinAddr: 0x100007F70, symSize: 0x240 }
  - { offsetInCU: 0xD9EA, offset: 0xD9EA, size: 0x8, addend: 0x0, symName: __ZNSt3__19use_facetB8ne180100INS_5ctypeIcEEEERKT_RKNS_6localeE, symObjAddr: 0x5868, symBinAddr: 0x1000085C0, symSize: 0x2C }
  - { offsetInCU: 0xDEB7, offset: 0xDEB7, size: 0x8, addend: 0x0, symName: __ZNSt3__118__constexpr_strlenB8ne180100EPKc, symObjAddr: 0x58CC, symBinAddr: 0x100008624, symSize: 0x24 }
  - { offsetInCU: 0xDEE3, offset: 0xDEE3, size: 0x8, addend: 0x0, symName: __ZNSt3__17getlineB8ne180100IcNS_11char_traitsIcEENS_9allocatorIcEEEERNS_13basic_istreamIT_T0_EES9_RNS_12basic_stringIS6_S7_T1_EES6_, symObjAddr: 0x5A94, symBinAddr: 0x1000087EC, symSize: 0x238 }
  - { offsetInCU: 0xE1D6, offset: 0xE1D6, size: 0x8, addend: 0x0, symName: __ZNSt3__112__to_addressB8ne180100IiEEPT_S2_, symObjAddr: 0x65CC, symBinAddr: 0x100009324, symSize: 0x14 }
  - { offsetInCU: 0xE20B, offset: 0xE20B, size: 0x8, addend: 0x0, symName: __ZNSt3__13maxB8ne180100ImEERKT_S3_S3_, symObjAddr: 0x6D54, symBinAddr: 0x100009AAC, symSize: 0x2C }
  - { offsetInCU: 0xE24E, offset: 0xE24E, size: 0x8, addend: 0x0, symName: __ZNSt3__13minB8ne180100ImEERKT_S3_S3_, symObjAddr: 0x6D80, symBinAddr: 0x100009AD8, symSize: 0x2C }
  - { offsetInCU: 0xE492, offset: 0xE492, size: 0x8, addend: 0x0, symName: __ZNSt3__13minB8ne180100ImNS_6__lessIvvEEEERKT_S5_S5_T0_, symObjAddr: 0x6E0C, symBinAddr: 0x100009B64, symSize: 0x54 }
  - { offsetInCU: 0xE531, offset: 0xE531, size: 0x8, addend: 0x0, symName: __ZNSt3__120__throw_length_errorB8ne180100EPKc, symObjAddr: 0x6EE8, symBinAddr: 0x100009C40, symSize: 0x64 }
  - { offsetInCU: 0xE559, offset: 0xE559, size: 0x8, addend: 0x0, symName: __ZNSt3__13maxB8ne180100ImNS_6__lessIvvEEEERKT_S5_S5_T0_, symObjAddr: 0x6FCC, symBinAddr: 0x100009D24, symSize: 0x54 }
  - { offsetInCU: 0xE5B3, offset: 0xE5B3, size: 0x8, addend: 0x0, symName: __ZNSt3__119__allocate_at_leastB8ne180100INS_9allocatorIiEEEENS_19__allocation_resultINS_16allocator_traitsIT_E7pointerEEERS5_m, symObjAddr: 0x7130, symBinAddr: 0x100009E88, symSize: 0x40 }
  - { offsetInCU: 0xE5F6, offset: 0xE5F6, size: 0x8, addend: 0x0, symName: __ZNSt3__117__libcpp_allocateB8ne180100Emm, symObjAddr: 0x72B4, symBinAddr: 0x10000A00C, symSize: 0x28 }
  - { offsetInCU: 0xE633, offset: 0xE633, size: 0x8, addend: 0x0, symName: __ZNSt3__121__libcpp_operator_newB8ne180100IJmEEEPvDpT_, symObjAddr: 0x72DC, symBinAddr: 0x10000A034, symSize: 0x24 }
  - { offsetInCU: 0xE66C, offset: 0xE66C, size: 0x8, addend: 0x0, symName: __ZNSt3__142__uninitialized_allocator_move_if_noexceptB8ne180100INS_9allocatorIiEENS_16reverse_iteratorIPiEES5_ivEET1_RT_T0_S9_S6_, symObjAddr: 0x7364, symBinAddr: 0x10000A0BC, symSize: 0x78 }
  - { offsetInCU: 0xE6E9, offset: 0xE6E9, size: 0x8, addend: 0x0, symName: __ZNSt3__14swapB8ne180100IPiEENS_9enable_ifIXaasr21is_move_constructibleIT_EE5valuesr18is_move_assignableIS3_EE5valueEvE4typeERS3_S6_, symObjAddr: 0x7428, symBinAddr: 0x10000A180, symSize: 0x3C }
  - { offsetInCU: 0xE73A, offset: 0xE73A, size: 0x8, addend: 0x0, symName: __ZNSt3__14moveB8ne180100INS_16reverse_iteratorIPiEES3_EET0_T_S5_S4_, symObjAddr: 0x7478, symBinAddr: 0x10000A1D0, symSize: 0x78 }
  - { offsetInCU: 0xE794, offset: 0xE794, size: 0x8, addend: 0x0, symName: __ZNSt3__16__moveB8ne180100INS_17_ClassicAlgPolicyENS_16reverse_iteratorIPiEES4_S4_EENS_4pairIT0_T2_EES6_T1_S7_, symObjAddr: 0x74F0, symBinAddr: 0x10000A248, symSize: 0x64 }
  - { offsetInCU: 0xE800, offset: 0xE800, size: 0x8, addend: 0x0, symName: __ZNSt3__123__dispatch_copy_or_moveB8ne180100INS_17_ClassicAlgPolicyENS_11__move_loopIS1_EENS_14__move_trivialENS_16reverse_iteratorIPiEES7_S7_EENS_4pairIT2_T4_EES9_T3_SA_, symObjAddr: 0x7554, symBinAddr: 0x10000A2AC, symSize: 0x64 }
  - { offsetInCU: 0xE87E, offset: 0xE87E, size: 0x8, addend: 0x0, symName: __ZNSt3__121__unwrap_and_dispatchB8ne180100INS_10__overloadINS_11__move_loopINS_17_ClassicAlgPolicyEEENS_14__move_trivialEEENS_16reverse_iteratorIPiEES9_S9_Li0EEENS_4pairIT0_T2_EESB_T1_SC_, symObjAddr: 0x75B8, symBinAddr: 0x10000A310, symSize: 0x12C }
  - { offsetInCU: 0xE90E, offset: 0xE90E, size: 0x8, addend: 0x0, symName: __ZNSt3__114__unwrap_rangeB8ne180100INS_16reverse_iteratorIPiEES3_EENS_4pairIT0_S5_EET_S7_, symObjAddr: 0x76E4, symBinAddr: 0x10000A43C, symSize: 0x84 }
  - { offsetInCU: 0xEA89, offset: 0xEA89, size: 0x8, addend: 0x0, symName: __ZNSt3__113__unwrap_iterB8ne180100INS_16reverse_iteratorIPiEENS_18__unwrap_iter_implIS3_Lb0EEELi0EEEDTclsrT0_8__unwrapclsr3stdE7declvalIT_EEEES7_, symObjAddr: 0x7808, symBinAddr: 0x10000A560, symSize: 0x44 }
  - { offsetInCU: 0xEACD, offset: 0xEACD, size: 0x8, addend: 0x0, symName: __ZNSt3__19make_pairB8ne180100INS_16reverse_iteratorIPiEES3_EENS_4pairINS_18__unwrap_ref_decayIT_E4typeENS5_IT0_E4typeEEEOS6_OS9_, symObjAddr: 0x784C, symBinAddr: 0x10000A5A4, symSize: 0x38 }
  - { offsetInCU: 0xEB1C, offset: 0xEB1C, size: 0x8, addend: 0x0, symName: __ZNSt3__114__rewrap_rangeB8ne180100INS_16reverse_iteratorIPiEES3_EET_S4_T0_, symObjAddr: 0x7884, symBinAddr: 0x10000A5DC, symSize: 0x5C }
  - { offsetInCU: 0xEB68, offset: 0xEB68, size: 0x8, addend: 0x0, symName: __ZNSt3__113__rewrap_iterB8ne180100INS_16reverse_iteratorIPiEES3_NS_18__unwrap_iter_implIS3_Lb0EEEEET_S6_T0_, symObjAddr: 0x78E0, symBinAddr: 0x10000A638, symSize: 0x74 }
  - { offsetInCU: 0xEBBD, offset: 0xEBBD, size: 0x8, addend: 0x0, symName: __ZNSt3__1neB8ne180100IPiS1_EEbRKNS_16reverse_iteratorIT_EERKNS2_IT0_EE, symObjAddr: 0x7954, symBinAddr: 0x10000A6AC, symSize: 0x48 }
  - { offsetInCU: 0xECB3, offset: 0xECB3, size: 0x8, addend: 0x0, symName: __ZNSt3__122__make_exception_guardB8ne180100INS_6vectorIiNS_9allocatorIiEEE16__destroy_vectorEEENS_28__exception_guard_exceptionsIT_EES7_, symObjAddr: 0x81FC, symBinAddr: 0x10000AF54, symSize: 0x40 }
  - { offsetInCU: 0xECE8, offset: 0xECE8, size: 0x8, addend: 0x0, symName: __ZNSt3__130__uninitialized_allocator_copyB8ne180100INS_9allocatorIiEEPiS3_S3_EET2_RT_T0_T1_S4_, symObjAddr: 0x8414, symBinAddr: 0x10000B16C, symSize: 0x80 }
  - { offsetInCU: 0xED85, offset: 0xED85, size: 0x8, addend: 0x0, symName: __ZNSt3__114__unwrap_rangeB8ne180100IPiS1_EENS_4pairIT0_S3_EET_S5_, symObjAddr: 0x8494, symBinAddr: 0x10000B1EC, symSize: 0x60 }
  - { offsetInCU: 0xEDD1, offset: 0xEDD1, size: 0x8, addend: 0x0, symName: __ZNSt3__135__uninitialized_allocator_copy_implB8ne180100INS_9allocatorIiEEiiiLPv0EEEPT2_RT_PT0_S9_S5_, symObjAddr: 0x84F4, symBinAddr: 0x10000B24C, symSize: 0x38 }
  - { offsetInCU: 0xEE52, offset: 0xEE52, size: 0x8, addend: 0x0, symName: __ZNSt3__113__unwrap_iterB8ne180100IPiNS_18__unwrap_iter_implIS1_Lb1EEELi0EEEDTclsrT0_8__unwrapclsr3stdE7declvalIT_EEEES5_, symObjAddr: 0x852C, symBinAddr: 0x10000B284, symSize: 0x24 }
  - { offsetInCU: 0xEE96, offset: 0xEE96, size: 0x8, addend: 0x0, symName: __ZNSt3__113__rewrap_iterB8ne180100IPiS1_NS_18__unwrap_iter_implIS1_Lb1EEEEET_S4_T0_, symObjAddr: 0x8550, symBinAddr: 0x10000B2A8, symSize: 0x3C }
  - { offsetInCU: 0xEEEB, offset: 0xEEEB, size: 0x8, addend: 0x0, symName: __ZNSt3__19make_pairB8ne180100IPiS1_EENS_4pairINS_18__unwrap_ref_decayIT_E4typeENS3_IT0_E4typeEEEOS4_OS7_, symObjAddr: 0x858C, symBinAddr: 0x10000B2E4, symSize: 0x38 }
  - { offsetInCU: 0xF03D, offset: 0xF03D, size: 0x8, addend: 0x0, symName: __ZNSt3__14copyB8ne180100IPiS1_EET0_T_S3_S2_, symObjAddr: 0x8634, symBinAddr: 0x10000B38C, symSize: 0x40 }
  - { offsetInCU: 0xF097, offset: 0xF097, size: 0x8, addend: 0x0, symName: __ZNSt3__16__copyB8ne180100INS_17_ClassicAlgPolicyEPiS2_S2_EENS_4pairIT0_T2_EES4_T1_S5_, symObjAddr: 0x8674, symBinAddr: 0x10000B3CC, symSize: 0x44 }
  - { offsetInCU: 0xF103, offset: 0xF103, size: 0x8, addend: 0x0, symName: __ZNSt3__123__dispatch_copy_or_moveB8ne180100INS_17_ClassicAlgPolicyENS_11__copy_loopIS1_EENS_14__copy_trivialEPiS5_S5_EENS_4pairIT2_T4_EES7_T3_S8_, symObjAddr: 0x86B8, symBinAddr: 0x10000B410, symSize: 0x44 }
  - { offsetInCU: 0xF181, offset: 0xF181, size: 0x8, addend: 0x0, symName: __ZNSt3__121__unwrap_and_dispatchB8ne180100INS_10__overloadINS_11__copy_loopINS_17_ClassicAlgPolicyEEENS_14__copy_trivialEEEPiS7_S7_Li0EEENS_4pairIT0_T2_EES9_T1_SA_, symObjAddr: 0x86FC, symBinAddr: 0x10000B454, symSize: 0xB4 }
  - { offsetInCU: 0xF291, offset: 0xF291, size: 0x8, addend: 0x0, symName: __ZNSt3__114__rewrap_rangeB8ne180100IPiS1_EET_S2_T0_, symObjAddr: 0x87F8, symBinAddr: 0x10000B550, symSize: 0x2C }
  - { offsetInCU: 0xF2DD, offset: 0xF2DD, size: 0x8, addend: 0x0, symName: __ZNSt3__119__copy_trivial_implB8ne180100IiiEENS_4pairIPT_PT0_EES3_S3_S5_, symObjAddr: 0x8824, symBinAddr: 0x10000B57C, symSize: 0x80 }
  - { offsetInCU: 0xF345, offset: 0xF345, size: 0x8, addend: 0x0, symName: __ZNSt3__119__constexpr_memmoveB8ne180100IiiLi0EEEPT_S2_PT0_NS_15__element_countE, symObjAddr: 0x88A4, symBinAddr: 0x10000B5FC, symSize: 0x64 }
  - { offsetInCU: 0xF3B3, offset: 0xF3B3, size: 0x8, addend: 0x0, symName: __ZNSt3__19make_pairB8ne180100IRPiS1_EENS_4pairINS_18__unwrap_ref_decayIT_E4typeENS4_IT0_E4typeEEEOS5_OS8_, symObjAddr: 0x8908, symBinAddr: 0x10000B660, symSize: 0x38 }
  - { offsetInCU: 0xF455, offset: 0xF455, size: 0x8, addend: 0x0, symName: __ZNSt3__119__allocate_at_leastB8ne180100INS_9allocatorINS_6vectorIiNS1_IiEEEEEEEENS_19__allocation_resultINS_16allocator_traitsIT_E7pointerEEERS8_m, symObjAddr: 0x8EF4, symBinAddr: 0x10000BC4C, symSize: 0x40 }
  - { offsetInCU: 0xF498, offset: 0xF498, size: 0x8, addend: 0x0, symName: __ZNSt3__142__uninitialized_allocator_move_if_noexceptB8ne180100INS_9allocatorINS_6vectorIiNS1_IiEEEEEENS_16reverse_iteratorIPS4_EES8_S8_EET2_RT_T0_T1_S9_, symObjAddr: 0x90AC, symBinAddr: 0x10000BE04, symSize: 0x12C }
  - { offsetInCU: 0xF538, offset: 0xF538, size: 0x8, addend: 0x0, symName: __ZNSt3__14swapB8ne180100IPNS_6vectorIiNS_9allocatorIiEEEEEENS_9enable_ifIXaasr21is_move_constructibleIT_EE5valuesr18is_move_assignableIS7_EE5valueEvE4typeERS7_SA_, symObjAddr: 0x9224, symBinAddr: 0x10000BF7C, symSize: 0x3C }
  - { offsetInCU: 0xF589, offset: 0xF589, size: 0x8, addend: 0x0, symName: __ZNSt3__122__make_exception_guardB8ne180100INS_29_AllocatorDestroyRangeReverseINS_9allocatorINS_6vectorIiNS2_IiEEEEEENS_16reverse_iteratorIPS5_EEEEEENS_28__exception_guard_exceptionsIT_EESC_, symObjAddr: 0x9274, symBinAddr: 0x10000BFCC, symSize: 0x4C }
  - { offsetInCU: 0xF5BF, offset: 0xF5BF, size: 0x8, addend: 0x0, symName: __ZNSt3__1neB8ne180100IPNS_6vectorIiNS_9allocatorIiEEEES5_EEbRKNS_16reverse_iteratorIT_EERKNS6_IT0_EE, symObjAddr: 0x9304, symBinAddr: 0x10000C05C, symSize: 0x48 }
  - { offsetInCU: 0xF60B, offset: 0xF60B, size: 0x8, addend: 0x0, symName: __ZNSt3__112__to_addressB8ne180100INS_16reverse_iteratorIPNS_6vectorIiNS_9allocatorIiEEEEEEvEEu7__decayIDTclsr19__to_address_helperIT_EE6__callclsr3stdE7declvalIRKS8_EEEEESA_, symObjAddr: 0x9380, symBinAddr: 0x10000C0D8, symSize: 0x24 }
  - { offsetInCU: 0xF66A, offset: 0xF66A, size: 0x8, addend: 0x0, symName: __ZNSt3__119__allocator_destroyB8ne180100INS_9allocatorINS_6vectorIiNS1_IiEEEEEENS_16reverse_iteratorINS6_IPS4_EEEES9_EEvRT_T0_T1_, symObjAddr: 0x9758, symBinAddr: 0x10000C4B0, symSize: 0x70 }
  - { offsetInCU: 0xF6CF, offset: 0xF6CF, size: 0x8, addend: 0x0, symName: __ZNSt3__1neB8ne180100INS_16reverse_iteratorIPNS_6vectorIiNS_9allocatorIiEEEEEES7_EEbRKNS1_IT_EERKNS1_IT0_EE, symObjAddr: 0x9804, symBinAddr: 0x10000C55C, symSize: 0x60 }
  - { offsetInCU: 0xF71B, offset: 0xF71B, size: 0x8, addend: 0x0, symName: __ZNSt3__112__to_addressB8ne180100INS_16reverse_iteratorINS1_IPNS_6vectorIiNS_9allocatorIiEEEEEEEEvEEu7__decayIDTclsr19__to_address_helperIT_EE6__callclsr3stdE7declvalIRKS9_EEEEESB_, symObjAddr: 0x9864, symBinAddr: 0x10000C5BC, symSize: 0x24 }
  - { offsetInCU: 0xF77A, offset: 0xF77A, size: 0x8, addend: 0x0, symName: __ZNSt3__112__to_addressB8ne180100INS_6vectorIbNS_9allocatorIbEEEEEEPT_S6_, symObjAddr: 0x9FF4, symBinAddr: 0x10000CD4C, symSize: 0x14 }
  - { offsetInCU: 0xF7AF, offset: 0xF7AF, size: 0x8, addend: 0x0, symName: __ZNSt3__119__allocate_at_leastB8ne180100INS_9allocatorImEEEENS_19__allocation_resultINS_16allocator_traitsIT_E7pointerEEERS5_m, symObjAddr: 0xAD34, symBinAddr: 0x10000DA8C, symSize: 0x40 }
  - { offsetInCU: 0xF7F2, offset: 0xF7F2, size: 0x8, addend: 0x0, symName: __ZNSt3__16__copyB8ne180100INS_17_ClassicAlgPolicyENS_14__bit_iteratorINS_6vectorIbNS_9allocatorIbEEEELb0ELm0EEES7_S7_EENS_4pairIT0_T2_EES9_T1_SA_, symObjAddr: 0xADF0, symBinAddr: 0x10000DB48, symSize: 0x88 }
  - { offsetInCU: 0xF861, offset: 0xF861, size: 0x8, addend: 0x0, symName: __ZNSt3__123__dispatch_copy_or_moveB8ne180100INS_17_ClassicAlgPolicyENS_11__copy_loopIS1_EENS_14__copy_trivialENS_14__bit_iteratorINS_6vectorIbNS_9allocatorIbEEEELb0ELm0EEESA_SA_EENS_4pairIT2_T4_EESC_T3_SD_, symObjAddr: 0xAF10, symBinAddr: 0x10000DC68, symSize: 0x88 }
  - { offsetInCU: 0xF8E2, offset: 0xF8E2, size: 0x8, addend: 0x0, symName: __ZNSt3__121__unwrap_and_dispatchB8ne180100INS_10__overloadINS_11__copy_loopINS_17_ClassicAlgPolicyEEENS_14__copy_trivialEEENS_14__bit_iteratorINS_6vectorIbNS_9allocatorIbEEEELb0ELm0EEESC_SC_Li0EEENS_4pairIT0_T2_EESE_T1_SF_, symObjAddr: 0xAF98, symBinAddr: 0x10000DCF0, symSize: 0x15C }
  - { offsetInCU: 0xF975, offset: 0xF975, size: 0x8, addend: 0x0, symName: __ZNSt3__114__unwrap_rangeB8ne180100INS_14__bit_iteratorINS_6vectorIbNS_9allocatorIbEEEELb0ELm0EEES6_EENS_4pairIT0_S8_EET_SA_, symObjAddr: 0xB0F4, symBinAddr: 0x10000DE4C, symSize: 0x8C }
  - { offsetInCU: 0xFB67, offset: 0xFB67, size: 0x8, addend: 0x0, symName: __ZNSt3__113__unwrap_iterB8ne180100INS_14__bit_iteratorINS_6vectorIbNS_9allocatorIbEEEELb0ELm0EEENS_18__unwrap_iter_implIS6_Lb0EEELi0EEEDTclsrT0_8__unwrapclsr3stdE7declvalIT_EEEESA_, symObjAddr: 0xB238, symBinAddr: 0x10000DF90, symSize: 0x44 }
  - { offsetInCU: 0xFBAC, offset: 0xFBAC, size: 0x8, addend: 0x0, symName: __ZNSt3__19make_pairB8ne180100INS_14__bit_iteratorINS_6vectorIbNS_9allocatorIbEEEELb0ELm0EEES6_EENS_4pairINS_18__unwrap_ref_decayIT_E4typeENS8_IT0_E4typeEEEOS9_OSC_, symObjAddr: 0xB27C, symBinAddr: 0x10000DFD4, symSize: 0x40 }
  - { offsetInCU: 0xFBFB, offset: 0xFBFB, size: 0x8, addend: 0x0, symName: __ZNSt3__114__rewrap_rangeB8ne180100INS_14__bit_iteratorINS_6vectorIbNS_9allocatorIbEEEELb0ELm0EEES6_EET_S7_T0_, symObjAddr: 0xB2BC, symBinAddr: 0x10000E014, symSize: 0x6C }
  - { offsetInCU: 0xFC49, offset: 0xFC49, size: 0x8, addend: 0x0, symName: __ZNSt3__113__rewrap_iterB8ne180100INS_14__bit_iteratorINS_6vectorIbNS_9allocatorIbEEEELb0ELm0EEES6_NS_18__unwrap_iter_implIS6_Lb0EEEEET_S9_T0_, symObjAddr: 0xB328, symBinAddr: 0x10000E080, symSize: 0x74 }
  - { offsetInCU: 0xFCE8, offset: 0xFCE8, size: 0x8, addend: 0x0, symName: __ZNSt3__14swapB8ne180100IPmEENS_9enable_ifIXaasr21is_move_constructibleIT_EE5valuesr18is_move_assignableIS3_EE5valueEvE4typeERS3_S6_, symObjAddr: 0xB56C, symBinAddr: 0x10000E2C4, symSize: 0x3C }
  - { offsetInCU: 0xFD39, offset: 0xFD39, size: 0x8, addend: 0x0, symName: __ZNSt3__14swapB8ne180100ImEENS_9enable_ifIXaasr21is_move_constructibleIT_EE5valuesr18is_move_assignableIS2_EE5valueEvE4typeERS2_S5_, symObjAddr: 0xB5A8, symBinAddr: 0x10000E300, symSize: 0x3C }
  - { offsetInCU: 0xFD8A, offset: 0xFD8A, size: 0x8, addend: 0x0, symName: __ZNSt3__116__swap_allocatorB8ne180100INS_9allocatorImEEEEvRT_S4_NS_17integral_constantIbLb0EEE, symObjAddr: 0xB5E4, symBinAddr: 0x10000E33C, symSize: 0x14 }
  - { offsetInCU: 0xFDCB, offset: 0xFDCB, size: 0x8, addend: 0x0, symName: __ZNSt3__16__copyB8ne180100INS_17_ClassicAlgPolicyENS_14__bit_iteratorINS_6vectorIbNS_9allocatorIbEEEELb1ELm0EEES7_NS2_IS6_Lb0ELm0EEEEENS_4pairIT0_T2_EESA_T1_SB_, symObjAddr: 0xBC10, symBinAddr: 0x10000E968, symSize: 0x7C }
  - { offsetInCU: 0xFE38, offset: 0xFE38, size: 0x8, addend: 0x0, symName: __ZNSt3__123__dispatch_copy_or_moveB8ne180100INS_17_ClassicAlgPolicyENS_11__copy_loopIS1_EENS_14__copy_trivialENS_14__bit_iteratorINS_6vectorIbNS_9allocatorIbEEEELb1ELm0EEESA_NS5_IS9_Lb0ELm0EEEEENS_4pairIT2_T4_EESD_T3_SE_, symObjAddr: 0xBC8C, symBinAddr: 0x10000E9E4, symSize: 0x7C }
  - { offsetInCU: 0xFEB7, offset: 0xFEB7, size: 0x8, addend: 0x0, symName: __ZNSt3__121__unwrap_and_dispatchB8ne180100INS_10__overloadINS_11__copy_loopINS_17_ClassicAlgPolicyEEENS_14__copy_trivialEEENS_14__bit_iteratorINS_6vectorIbNS_9allocatorIbEEEELb1ELm0EEESC_NS7_ISB_Lb0ELm0EEELi0EEENS_4pairIT0_T2_EESF_T1_SG_, symObjAddr: 0xBD08, symBinAddr: 0x10000EA60, symSize: 0x150 }
  - { offsetInCU: 0xFF48, offset: 0xFF48, size: 0x8, addend: 0x0, symName: __ZNSt3__114__unwrap_rangeB8ne180100INS_14__bit_iteratorINS_6vectorIbNS_9allocatorIbEEEELb1ELm0EEES6_EENS_4pairIT0_S8_EET_SA_, symObjAddr: 0xBE58, symBinAddr: 0x10000EBB0, symSize: 0x84 }
  - { offsetInCU: 0x10068, offset: 0x10068, size: 0x8, addend: 0x0, symName: __ZNSt3__19make_pairB8ne180100INS_14__bit_iteratorINS_6vectorIbNS_9allocatorIbEEEELb1ELm0EEENS1_IS5_Lb0ELm0EEEEENS_4pairINS_18__unwrap_ref_decayIT_E4typeENS9_IT0_E4typeEEEOSA_OSD_, symObjAddr: 0xBFA0, symBinAddr: 0x10000ECF8, symSize: 0x40 }
  - { offsetInCU: 0x100B7, offset: 0x100B7, size: 0x8, addend: 0x0, symName: __ZNSt3__114__rewrap_rangeB8ne180100INS_14__bit_iteratorINS_6vectorIbNS_9allocatorIbEEEELb1ELm0EEES6_EET_S7_T0_, symObjAddr: 0xBFE0, symBinAddr: 0x10000ED38, symSize: 0x5C }
  - { offsetInCU: 0x10103, offset: 0x10103, size: 0x8, addend: 0x0, symName: __ZNSt3__19make_pairB8ne180100INS_14__bit_iteratorINS_6vectorIbNS_9allocatorIbEEEELb1ELm0EEES6_EENS_4pairINS_18__unwrap_ref_decayIT_E4typeENS8_IT0_E4typeEEEOS9_OSC_, symObjAddr: 0xC03C, symBinAddr: 0x10000ED94, symSize: 0x38 }
  - { offsetInCU: 0x10152, offset: 0x10152, size: 0x8, addend: 0x0, symName: __ZNSt3__113__unwrap_iterB8ne180100INS_14__bit_iteratorINS_6vectorIbNS_9allocatorIbEEEELb1ELm0EEENS_18__unwrap_iter_implIS6_Lb0EEELi0EEEDTclsrT0_8__unwrapclsr3stdE7declvalIT_EEEESA_, symObjAddr: 0xC074, symBinAddr: 0x10000EDCC, symSize: 0x44 }
  - { offsetInCU: 0x102B2, offset: 0x102B2, size: 0x8, addend: 0x0, symName: __ZNSt3__113__rewrap_iterB8ne180100INS_14__bit_iteratorINS_6vectorIbNS_9allocatorIbEEEELb1ELm0EEES6_NS_18__unwrap_iter_implIS6_Lb0EEEEET_S9_T0_, symObjAddr: 0xC1D0, symBinAddr: 0x10000EF28, symSize: 0x74 }
  - { offsetInCU: 0x10307, offset: 0x10307, size: 0x8, addend: 0x0, symName: __ZNSt3__119__allocate_at_leastB8ne180100INS_9allocatorINS_6vectorIbNS1_IbEEEEEEEENS_19__allocation_resultINS_16allocator_traitsIT_E7pointerEEERS8_m, symObjAddr: 0xC6F8, symBinAddr: 0x10000F450, symSize: 0x40 }
  - { offsetInCU: 0x1034A, offset: 0x1034A, size: 0x8, addend: 0x0, symName: __ZNSt3__142__uninitialized_allocator_move_if_noexceptB8ne180100INS_9allocatorINS_6vectorIbNS1_IbEEEEEENS_16reverse_iteratorIPS4_EES8_S8_EET2_RT_T0_T1_S9_, symObjAddr: 0xC8B0, symBinAddr: 0x10000F608, symSize: 0x12C }
  - { offsetInCU: 0x103EA, offset: 0x103EA, size: 0x8, addend: 0x0, symName: __ZNSt3__14swapB8ne180100IPNS_6vectorIbNS_9allocatorIbEEEEEENS_9enable_ifIXaasr21is_move_constructibleIT_EE5valuesr18is_move_assignableIS7_EE5valueEvE4typeERS7_SA_, symObjAddr: 0xCA28, symBinAddr: 0x10000F780, symSize: 0x3C }
  - { offsetInCU: 0x1043B, offset: 0x1043B, size: 0x8, addend: 0x0, symName: __ZNSt3__122__make_exception_guardB8ne180100INS_29_AllocatorDestroyRangeReverseINS_9allocatorINS_6vectorIbNS2_IbEEEEEENS_16reverse_iteratorIPS5_EEEEEENS_28__exception_guard_exceptionsIT_EESC_, symObjAddr: 0xCA78, symBinAddr: 0x10000F7D0, symSize: 0x4C }
  - { offsetInCU: 0x10471, offset: 0x10471, size: 0x8, addend: 0x0, symName: __ZNSt3__1neB8ne180100IPNS_6vectorIbNS_9allocatorIbEEEES5_EEbRKNS_16reverse_iteratorIT_EERKNS6_IT0_EE, symObjAddr: 0xCB08, symBinAddr: 0x10000F860, symSize: 0x48 }
  - { offsetInCU: 0x104BD, offset: 0x104BD, size: 0x8, addend: 0x0, symName: __ZNSt3__112__to_addressB8ne180100INS_16reverse_iteratorIPNS_6vectorIbNS_9allocatorIbEEEEEEvEEu7__decayIDTclsr19__to_address_helperIT_EE6__callclsr3stdE7declvalIRKS8_EEEEESA_, symObjAddr: 0xCB84, symBinAddr: 0x10000F8DC, symSize: 0x24 }
  - { offsetInCU: 0x1051C, offset: 0x1051C, size: 0x8, addend: 0x0, symName: __ZNSt3__119__allocator_destroyB8ne180100INS_9allocatorINS_6vectorIbNS1_IbEEEEEENS_16reverse_iteratorINS6_IPS4_EEEES9_EEvRT_T0_T1_, symObjAddr: 0xCF08, symBinAddr: 0x10000FC60, symSize: 0x70 }
  - { offsetInCU: 0x10581, offset: 0x10581, size: 0x8, addend: 0x0, symName: __ZNSt3__1neB8ne180100INS_16reverse_iteratorIPNS_6vectorIbNS_9allocatorIbEEEEEES7_EEbRKNS1_IT_EERKNS1_IT0_EE, symObjAddr: 0xCFB4, symBinAddr: 0x10000FD0C, symSize: 0x60 }
  - { offsetInCU: 0x105CD, offset: 0x105CD, size: 0x8, addend: 0x0, symName: __ZNSt3__112__to_addressB8ne180100INS_16reverse_iteratorINS1_IPNS_6vectorIbNS_9allocatorIbEEEEEEEEvEEu7__decayIDTclsr19__to_address_helperIT_EE6__callclsr3stdE7declvalIRKS9_EEEEESB_, symObjAddr: 0xD014, symBinAddr: 0x10000FD6C, symSize: 0x24 }
  - { offsetInCU: 0x1062C, offset: 0x1062C, size: 0x8, addend: 0x0, symName: __ZNSt3__122__str_find_last_not_ofB8ne180100IcmNS_11char_traitsIcEELm18446744073709551615EEET0_PKT_S3_S6_S3_S3_, symObjAddr: 0xD37C, symBinAddr: 0x1000100D4, symSize: 0xDC }
  - { offsetInCU: 0x106E1, offset: 0x106E1, size: 0x8, addend: 0x0, symName: __ZNSt3__118__constexpr_memchrB8ne180100IKccEEPT_S3_T0_m, symObjAddr: 0xD4C8, symBinAddr: 0x100010220, symSize: 0x40 }
  - { offsetInCU: 0x10757, offset: 0x10757, size: 0x8, addend: 0x0, symName: __ZNSt3__16__fillB8ne180100INS_11__wrap_iterIPiEEiEEvT_S4_RKT0_NS_26random_access_iterator_tagE, symObjAddr: 0xD764, symBinAddr: 0x1000104BC, symSize: 0x50 }
  - { offsetInCU: 0x107B7, offset: 0x107B7, size: 0x8, addend: 0x0, symName: __ZNSt3__16fill_nB8ne180100INS_11__wrap_iterIPiEEliEET_S4_T0_RKT1_, symObjAddr: 0xD7B4, symBinAddr: 0x10001050C, symSize: 0x4C }
  - { offsetInCU: 0x1081A, offset: 0x1081A, size: 0x8, addend: 0x0, symName: __ZNSt3__1miB8ne180100IPiS1_EEDTmicldtfp_4baseEcldtfp0_4baseEERKNS_11__wrap_iterIT_EERKNS3_IT0_EE, symObjAddr: 0xD800, symBinAddr: 0x100010558, symSize: 0x48 }
  - { offsetInCU: 0x10866, offset: 0x10866, size: 0x8, addend: 0x0, symName: __ZNSt3__18__fill_nB8ne180100INS_11__wrap_iterIPiEEliEET_S4_T0_RKT1_, symObjAddr: 0xD848, symBinAddr: 0x1000105A0, symSize: 0x80 }
  - { offsetInCU: 0x108C9, offset: 0x108C9, size: 0x8, addend: 0x0, symName: __ZNSt3__121__convert_to_integralB8ne180100El, symObjAddr: 0xD8C8, symBinAddr: 0x100010620, symSize: 0x14 }
  - { offsetInCU: 0x108F5, offset: 0x108F5, size: 0x8, addend: 0x0, symName: __ZNSt3__18distanceB8ne180100IPNS_6vectorIbNS_9allocatorIbEEEEEENS_15iterator_traitsIT_E15difference_typeES7_S7_, symObjAddr: 0xDB2C, symBinAddr: 0x100010884, symSize: 0x2C }
  - { offsetInCU: 0x10938, offset: 0x10938, size: 0x8, addend: 0x0, symName: __ZNSt3__14nextB8ne180100IPNS_6vectorIbNS_9allocatorIbEEEELi0EEET_S6_NS_15iterator_traitsIS6_E15difference_typeE, symObjAddr: 0xDB58, symBinAddr: 0x1000108B0, symSize: 0x34 }
  - { offsetInCU: 0x10981, offset: 0x10981, size: 0x8, addend: 0x0, symName: __ZNSt3__14copyB8ne180100IPNS_6vectorIbNS_9allocatorIbEEEES5_EET0_T_S7_S6_, symObjAddr: 0xDB8C, symBinAddr: 0x1000108E4, symSize: 0x40 }
  - { offsetInCU: 0x109DB, offset: 0x109DB, size: 0x8, addend: 0x0, symName: __ZNSt3__16__copyB8ne180100INS_17_ClassicAlgPolicyEPNS_6vectorIbNS_9allocatorIbEEEES6_S6_EENS_4pairIT0_T2_EES8_T1_S9_, symObjAddr: 0xDC58, symBinAddr: 0x1000109B0, symSize: 0x44 }
  - { offsetInCU: 0x10A47, offset: 0x10A47, size: 0x8, addend: 0x0, symName: __ZNSt3__19__advanceB8ne180100IPNS_6vectorIbNS_9allocatorIbEEEEEEvRT_NS_15iterator_traitsIS6_E15difference_typeENS_26random_access_iterator_tagE, symObjAddr: 0xDE68, symBinAddr: 0x100010BC0, symSize: 0x30 }
  - { offsetInCU: 0x10A90, offset: 0x10A90, size: 0x8, addend: 0x0, symName: __ZNSt3__130__uninitialized_allocator_copyB8ne180100INS_9allocatorINS_6vectorIbNS1_IbEEEEEEPS4_S6_S6_EET2_RT_T0_T1_S7_, symObjAddr: 0xDE98, symBinAddr: 0x100010BF0, symSize: 0x80 }
  - { offsetInCU: 0x10B2D, offset: 0x10B2D, size: 0x8, addend: 0x0, symName: __ZNSt3__114__unwrap_rangeB8ne180100IPNS_6vectorIbNS_9allocatorIbEEEES5_EENS_4pairIT0_S7_EET_S9_, symObjAddr: 0xDF18, symBinAddr: 0x100010C70, symSize: 0x60 }
  - { offsetInCU: 0x10B79, offset: 0x10B79, size: 0x8, addend: 0x0, symName: __ZNSt3__135__uninitialized_allocator_copy_implB8ne180100INS_9allocatorINS_6vectorIbNS1_IbEEEEEEPS4_S6_S6_EET2_RT_T0_T1_S7_, symObjAddr: 0xDF78, symBinAddr: 0x100010CD0, symSize: 0xF4 }
  - { offsetInCU: 0x10C17, offset: 0x10C17, size: 0x8, addend: 0x0, symName: __ZNSt3__113__unwrap_iterB8ne180100IPNS_6vectorIbNS_9allocatorIbEEEENS_18__unwrap_iter_implIS5_Lb1EEELi0EEEDTclsrT0_8__unwrapclsr3stdE7declvalIT_EEEES9_, symObjAddr: 0xE06C, symBinAddr: 0x100010DC4, symSize: 0x24 }
  - { offsetInCU: 0x10C5B, offset: 0x10C5B, size: 0x8, addend: 0x0, symName: __ZNSt3__113__rewrap_iterB8ne180100IPNS_6vectorIbNS_9allocatorIbEEEES5_NS_18__unwrap_iter_implIS5_Lb1EEEEET_S8_T0_, symObjAddr: 0xE090, symBinAddr: 0x100010DE8, symSize: 0x3C }
  - { offsetInCU: 0x10CB0, offset: 0x10CB0, size: 0x8, addend: 0x0, symName: __ZNSt3__19make_pairB8ne180100IPNS_6vectorIbNS_9allocatorIbEEEES5_EENS_4pairINS_18__unwrap_ref_decayIT_E4typeENS7_IT0_E4typeEEEOS8_OSB_, symObjAddr: 0xE0CC, symBinAddr: 0x100010E24, symSize: 0x38 }
  - { offsetInCU: 0x10DD3, offset: 0x10DD3, size: 0x8, addend: 0x0, symName: __ZNSt3__122__make_exception_guardB8ne180100INS_29_AllocatorDestroyRangeReverseINS_9allocatorINS_6vectorIbNS2_IbEEEEEEPS5_EEEENS_28__exception_guard_exceptionsIT_EESA_, symObjAddr: 0xE174, symBinAddr: 0x100010ECC, symSize: 0x4C }
  - { offsetInCU: 0x10E09, offset: 0x10E09, size: 0x8, addend: 0x0, symName: __ZNSt3__119__allocator_destroyB8ne180100INS_9allocatorINS_6vectorIbNS1_IbEEEEEENS_16reverse_iteratorIPS4_EES8_EEvRT_T0_T1_, symObjAddr: 0xE404, symBinAddr: 0x10001115C, symSize: 0x70 }
  - { offsetInCU: 0x10EBF, offset: 0x10EBF, size: 0x8, addend: 0x0, symName: __ZNSt3__123__dispatch_copy_or_moveB8ne180100INS_17_ClassicAlgPolicyENS_11__copy_loopIS1_EENS_14__copy_trivialEPNS_6vectorIbNS_9allocatorIbEEEES9_S9_EENS_4pairIT2_T4_EESB_T3_SC_, symObjAddr: 0xE4F0, symBinAddr: 0x100011248, symSize: 0x44 }
  - { offsetInCU: 0x10F3D, offset: 0x10F3D, size: 0x8, addend: 0x0, symName: __ZNSt3__121__unwrap_and_dispatchB8ne180100INS_10__overloadINS_11__copy_loopINS_17_ClassicAlgPolicyEEENS_14__copy_trivialEEEPNS_6vectorIbNS_9allocatorIbEEEESB_SB_Li0EEENS_4pairIT0_T2_EESD_T1_SE_, symObjAddr: 0xE534, symBinAddr: 0x10001128C, symSize: 0xB4 }
  - { offsetInCU: 0x10FCB, offset: 0x10FCB, size: 0x8, addend: 0x0, symName: __ZNSt3__114__rewrap_rangeB8ne180100IPNS_6vectorIbNS_9allocatorIbEEEES5_EET_S6_T0_, symObjAddr: 0xE670, symBinAddr: 0x1000113C8, symSize: 0x2C }
  - { offsetInCU: 0x11017, offset: 0x11017, size: 0x8, addend: 0x0, symName: __ZNSt3__14copyB8ne180100IPmS1_EET0_T_S3_S2_, symObjAddr: 0xE850, symBinAddr: 0x1000115A8, symSize: 0x40 }
  - { offsetInCU: 0x11071, offset: 0x11071, size: 0x8, addend: 0x0, symName: __ZNSt3__16__copyB8ne180100INS_17_ClassicAlgPolicyEPmS2_S2_EENS_4pairIT0_T2_EES4_T1_S5_, symObjAddr: 0xE8A4, symBinAddr: 0x1000115FC, symSize: 0x44 }
  - { offsetInCU: 0x110DD, offset: 0x110DD, size: 0x8, addend: 0x0, symName: __ZNSt3__123__dispatch_copy_or_moveB8ne180100INS_17_ClassicAlgPolicyENS_11__copy_loopIS1_EENS_14__copy_trivialEPmS5_S5_EENS_4pairIT2_T4_EES7_T3_S8_, symObjAddr: 0xE8E8, symBinAddr: 0x100011640, symSize: 0x44 }
  - { offsetInCU: 0x1115B, offset: 0x1115B, size: 0x8, addend: 0x0, symName: __ZNSt3__121__unwrap_and_dispatchB8ne180100INS_10__overloadINS_11__copy_loopINS_17_ClassicAlgPolicyEEENS_14__copy_trivialEEEPmS7_S7_Li0EEENS_4pairIT0_T2_EES9_T1_SA_, symObjAddr: 0xE92C, symBinAddr: 0x100011684, symSize: 0xB4 }
  - { offsetInCU: 0x111E9, offset: 0x111E9, size: 0x8, addend: 0x0, symName: __ZNSt3__114__unwrap_rangeB8ne180100IPmS1_EENS_4pairIT0_S3_EET_S5_, symObjAddr: 0xE9E0, symBinAddr: 0x100011738, symSize: 0x60 }
  - { offsetInCU: 0x11338, offset: 0x11338, size: 0x8, addend: 0x0, symName: __ZNSt3__113__unwrap_iterB8ne180100IPmNS_18__unwrap_iter_implIS1_Lb1EEELi0EEEDTclsrT0_8__unwrapclsr3stdE7declvalIT_EEEES5_, symObjAddr: 0xEA88, symBinAddr: 0x1000117E0, symSize: 0x24 }
  - { offsetInCU: 0x1137C, offset: 0x1137C, size: 0x8, addend: 0x0, symName: __ZNSt3__19make_pairB8ne180100IPmS1_EENS_4pairINS_18__unwrap_ref_decayIT_E4typeENS3_IT0_E4typeEEEOS4_OS7_, symObjAddr: 0xEAAC, symBinAddr: 0x100011804, symSize: 0x38 }
  - { offsetInCU: 0x113CB, offset: 0x113CB, size: 0x8, addend: 0x0, symName: __ZNSt3__114__rewrap_rangeB8ne180100IPmS1_EET_S2_T0_, symObjAddr: 0xEAE4, symBinAddr: 0x10001183C, symSize: 0x2C }
  - { offsetInCU: 0x11417, offset: 0x11417, size: 0x8, addend: 0x0, symName: __ZNSt3__113__rewrap_iterB8ne180100IPmS1_NS_18__unwrap_iter_implIS1_Lb1EEEEET_S4_T0_, symObjAddr: 0xEB10, symBinAddr: 0x100011868, symSize: 0x3C }
  - { offsetInCU: 0x1146C, offset: 0x1146C, size: 0x8, addend: 0x0, symName: __ZNSt3__119__copy_trivial_implB8ne180100ImmEENS_4pairIPT_PT0_EES3_S3_S5_, symObjAddr: 0xEB4C, symBinAddr: 0x1000118A4, symSize: 0x80 }
  - { offsetInCU: 0x114D4, offset: 0x114D4, size: 0x8, addend: 0x0, symName: __ZNSt3__119__constexpr_memmoveB8ne180100ImmLi0EEEPT_S2_PT0_NS_15__element_countE, symObjAddr: 0xEBCC, symBinAddr: 0x100011924, symSize: 0x64 }
  - { offsetInCU: 0x11542, offset: 0x11542, size: 0x8, addend: 0x0, symName: __ZNSt3__19make_pairB8ne180100IRPmS1_EENS_4pairINS_18__unwrap_ref_decayIT_E4typeENS4_IT0_E4typeEEEOS5_OS8_, symObjAddr: 0xEC30, symBinAddr: 0x100011988, symSize: 0x38 }
  - { offsetInCU: 0x115E4, offset: 0x115E4, size: 0x8, addend: 0x0, symName: __ZNSt3__112__to_addressB8ne180100ImEEPT_S2_, symObjAddr: 0xECFC, symBinAddr: 0x100011A54, symSize: 0x14 }
  - { offsetInCU: 0x11619, offset: 0x11619, size: 0x8, addend: 0x0, symName: __ZNSt3__110__distanceB8ne180100IPNS_6vectorIbNS_9allocatorIbEEEEEENS_15iterator_traitsIT_E15difference_typeES7_S7_NS_26random_access_iterator_tagE, symObjAddr: 0xEDE4, symBinAddr: 0x100011B3C, symSize: 0x28 }
  - { offsetInCU: 0x11666, offset: 0x11666, size: 0x8, addend: 0x0, symName: __ZNSt3__1eqB8ne180100ERKNS_14__bit_iteratorINS_6vectorIbNS_9allocatorIbEEEELb1ELm0EEES7_, symObjAddr: 0xEF54, symBinAddr: 0x100011CAC, symSize: 0x64 }
  - { offsetInCU: 0x116A3, offset: 0x116A3, size: 0x8, addend: 0x0, symName: __ZNSt3__1eqB8ne180100ERKNS_14__bit_iteratorINS_6vectorIbNS_9allocatorIbEEEELb0ELm0EEES7_, symObjAddr: 0xF020, symBinAddr: 0x100011D78, symSize: 0x64 }
  - { offsetInCU: 0x11C41, offset: 0x11C41, size: 0x8, addend: 0x0, symName: __ZSt28__throw_bad_array_new_lengthB8ne180100v, symObjAddr: 0x7280, symBinAddr: 0x100009FD8, symSize: 0x34 }
  - { offsetInCU: 0x12446, offset: 0x12446, size: 0x8, addend: 0x0, symName: __ZNSt3__16vectorIiNS_9allocatorIiEEE26__swap_out_circular_bufferERNS_14__split_bufferIiRS2_EE, symObjAddr: 0x6B9C, symBinAddr: 0x1000098F4, symSize: 0x110 }
  - { offsetInCU: 0x124B5, offset: 0x124B5, size: 0x8, addend: 0x0, symName: __ZNSt3__16vectorINS0_IiNS_9allocatorIiEEEENS1_IS3_EEE26__swap_out_circular_bufferERNS_14__split_bufferIS3_RS4_EE, symObjAddr: 0x8B84, symBinAddr: 0x10000B8DC, symSize: 0x110 }
  - { offsetInCU: 0x12860, offset: 0x12860, size: 0x8, addend: 0x0, symName: __ZNSt3__16vectorINS0_IbNS_9allocatorIbEEEENS1_IS3_EEE26__swap_out_circular_bufferERNS_14__split_bufferIS3_RS4_EE, symObjAddr: 0xC388, symBinAddr: 0x10000F0E0, symSize: 0x110 }
  - { offsetInCU: 0x15396, offset: 0x15396, size: 0x8, addend: 0x0, symName: __ZN12AsteroidDashC2ERKNSt3__112basic_stringIcNS0_11char_traitsIcEENS0_9allocatorIcEEEES8_S8_S8_S8_, symObjAddr: 0x0, symBinAddr: 0x100002D58, symSize: 0x144 }
  - { offsetInCU: 0x15408, offset: 0x15408, size: 0x8, addend: 0x0, symName: __ZNSt3__16vectorINS0_IiNS_9allocatorIiEEEENS1_IS3_EEEC1B8ne180100Ev, symObjAddr: 0x144, symBinAddr: 0x100002E9C, symSize: 0x2C }
  - { offsetInCU: 0x15432, offset: 0x15432, size: 0x8, addend: 0x0, symName: __ZN11LeaderboardC1Ev, symObjAddr: 0x170, symBinAddr: 0x100002EC8, symSize: 0x2C }
  - { offsetInCU: 0x1545E, offset: 0x1545E, size: 0x8, addend: 0x0, symName: __ZN12AsteroidDash11read_playerERKNSt3__112basic_stringIcNS0_11char_traitsIcEENS0_9allocatorIcEEEES8_, symObjAddr: 0x19C, symBinAddr: 0x100002EF4, symSize: 0x35C }
  - { offsetInCU: 0x1554A, offset: 0x1554A, size: 0x8, addend: 0x0, symName: __ZN12AsteroidDash15read_space_gridERKNSt3__112basic_stringIcNS0_11char_traitsIcEENS0_9allocatorIcEEEE, symObjAddr: 0x4F8, symBinAddr: 0x100003250, symSize: 0x284 }
  - { offsetInCU: 0x155F9, offset: 0x155F9, size: 0x8, addend: 0x0, symName: __ZN12AsteroidDash22read_celestial_objectsERKNSt3__112basic_stringIcNS0_11char_traitsIcEENS0_9allocatorIcEEEE, symObjAddr: 0x77C, symBinAddr: 0x1000034D4, symSize: 0x9EC }
  - { offsetInCU: 0x15767, offset: 0x15767, size: 0x8, addend: 0x0, symName: __ZN12AsteroidDash17update_space_gridEv, symObjAddr: 0x1168, symBinAddr: 0x100003EC0, symSize: 0x98 }
  - { offsetInCU: 0x15790, offset: 0x15790, size: 0x8, addend: 0x0, symName: __ZNSt3__16vectorINS0_IiNS_9allocatorIiEEEENS1_IS3_EEED1B8ne180100Ev, symObjAddr: 0x1200, symBinAddr: 0x100003F58, symSize: 0x2C }
  - { offsetInCU: 0x157BA, offset: 0x157BA, size: 0x8, addend: 0x0, symName: __ZN12AsteroidDashC1ERKNSt3__112basic_stringIcNS0_11char_traitsIcEENS0_9allocatorIcEEEES8_S8_S8_S8_, symObjAddr: 0x122C, symBinAddr: 0x100003F84, symSize: 0x54 }
  - { offsetInCU: 0x1593E, offset: 0x1593E, size: 0x8, addend: 0x0, symName: __ZNSt3__114basic_ifstreamIcNS_11char_traitsIcEEEC1ERKNS_12basic_stringIcS2_NS_9allocatorIcEEEEj, symObjAddr: 0x1280, symBinAddr: 0x100003FD8, symSize: 0x16C }
  - { offsetInCU: 0x15988, offset: 0x15988, size: 0x8, addend: 0x0, symName: __ZNKSt3__19basic_iosIcNS_11char_traitsIcEEEntB8ne180100Ev, symObjAddr: 0x13EC, symBinAddr: 0x100004144, symSize: 0x28 }
  - { offsetInCU: 0x159AE, offset: 0x159AE, size: 0x8, addend: 0x0, symName: __ZNSt3__113basic_ostreamIcNS_11char_traitsIcEEElsB8ne180100EPFRS3_S4_E, symObjAddr: 0x14A8, symBinAddr: 0x100004200, symSize: 0x2C }
  - { offsetInCU: 0x159E2, offset: 0x159E2, size: 0x8, addend: 0x0, symName: __ZNSt3__112basic_stringIcNS_11char_traitsIcEENS_9allocatorIcEEEC1B8ne180100Ev, symObjAddr: 0x152C, symBinAddr: 0x100004284, symSize: 0x2C }
  - { offsetInCU: 0x15A0C, offset: 0x15A0C, size: 0x8, addend: 0x0, symName: __ZNKSt3__19basic_iosIcNS_11char_traitsIcEEEcvbB8ne180100Ev, symObjAddr: 0x15B4, symBinAddr: 0x10000430C, symSize: 0x2C }
  - { offsetInCU: 0x15A32, offset: 0x15A32, size: 0x8, addend: 0x0, symName: __ZNSt3__16vectorIiNS_9allocatorIiEEEC1B8ne180100Ev, symObjAddr: 0x15E0, symBinAddr: 0x100004338, symSize: 0x2C }
  - { offsetInCU: 0x15A5C, offset: 0x15A5C, size: 0x8, addend: 0x0, symName: __ZNSt3__112basic_stringIcNS_11char_traitsIcEENS_9allocatorIcEEE5beginB8ne180100Ev, symObjAddr: 0x160C, symBinAddr: 0x100004364, symSize: 0x4C }
  - { offsetInCU: 0x15A82, offset: 0x15A82, size: 0x8, addend: 0x0, symName: __ZNSt3__112basic_stringIcNS_11char_traitsIcEENS_9allocatorIcEEE3endB8ne180100Ev, symObjAddr: 0x1658, symBinAddr: 0x1000043B0, symSize: 0x54 }
  - { offsetInCU: 0x15AA8, offset: 0x15AA8, size: 0x8, addend: 0x0, symName: __ZNKSt3__111__wrap_iterIPcEdeB8ne180100Ev, symObjAddr: 0x16E0, symBinAddr: 0x100004438, symSize: 0x18 }
  - { offsetInCU: 0x15ACE, offset: 0x15ACE, size: 0x8, addend: 0x0, symName: __ZNSt3__16vectorIiNS_9allocatorIiEEE9push_backB8ne180100EOi, symObjAddr: 0x16F8, symBinAddr: 0x100004450, symSize: 0x90 }
  - { offsetInCU: 0x15B13, offset: 0x15B13, size: 0x8, addend: 0x0, symName: __ZNSt3__111__wrap_iterIPcEppB8ne180100Ev, symObjAddr: 0x1788, symBinAddr: 0x1000044E0, symSize: 0x20 }
  - { offsetInCU: 0x15B39, offset: 0x15B39, size: 0x8, addend: 0x0, symName: __ZNKSt3__16vectorIiNS_9allocatorIiEEE5emptyB8ne180100Ev, symObjAddr: 0x17A8, symBinAddr: 0x100004500, symSize: 0x28 }
  - { offsetInCU: 0x15B5F, offset: 0x15B5F, size: 0x8, addend: 0x0, symName: __ZNSt3__16vectorINS0_IiNS_9allocatorIiEEEENS1_IS3_EEE9push_backB8ne180100ERKS3_, symObjAddr: 0x17D0, symBinAddr: 0x100004528, symSize: 0x90 }
  - { offsetInCU: 0x15BA4, offset: 0x15BA4, size: 0x8, addend: 0x0, symName: __ZNSt3__16vectorIiNS_9allocatorIiEEED1B8ne180100Ev, symObjAddr: 0x1860, symBinAddr: 0x1000045B8, symSize: 0x2C }
  - { offsetInCU: 0x15BD3, offset: 0x15BD3, size: 0x8, addend: 0x0, symName: __ZNSt3__114basic_ifstreamIcNS_11char_traitsIcEEED1Ev, symObjAddr: 0x188C, symBinAddr: 0x1000045E4, symSize: 0x40 }
  - { offsetInCU: 0x15C00, offset: 0x15C00, size: 0x8, addend: 0x0, symName: __ZNKSt3__114basic_ifstreamIcNS_11char_traitsIcEEE7is_openEv, symObjAddr: 0x18CC, symBinAddr: 0x100004624, symSize: 0x2C }
  - { offsetInCU: 0x15C27, offset: 0x15C27, size: 0x8, addend: 0x0, symName: __ZNSt3__16vectorINS0_IbNS_9allocatorIbEEEENS1_IS3_EEEC1B8ne180100Ev, symObjAddr: 0x18F8, symBinAddr: 0x100004650, symSize: 0x2C }
  - { offsetInCU: 0x15C51, offset: 0x15C51, size: 0x8, addend: 0x0, symName: __ZNSt3__16vectorIbNS_9allocatorIbEEEC1B8ne180100Ev, symObjAddr: 0x1924, symBinAddr: 0x10000467C, symSize: 0x2C }
  - { offsetInCU: 0x15C7D, offset: 0x15C7D, size: 0x8, addend: 0x0, symName: __ZNSt3__16vectorIbNS_9allocatorIbEEE9push_backERKb, symObjAddr: 0x1950, symBinAddr: 0x1000046A8, symSize: 0xA4 }
  - { offsetInCU: 0x15CB3, offset: 0x15CB3, size: 0x8, addend: 0x0, symName: __ZNKSt3__16vectorIbNS_9allocatorIbEEE5emptyB8ne180100Ev, symObjAddr: 0x19F4, symBinAddr: 0x10000474C, symSize: 0x24 }
  - { offsetInCU: 0x15CD9, offset: 0x15CD9, size: 0x8, addend: 0x0, symName: __ZNSt3__16vectorINS0_IbNS_9allocatorIbEEEENS1_IS3_EEE9push_backB8ne180100ERKS3_, symObjAddr: 0x1A18, symBinAddr: 0x100004770, symSize: 0x90 }
  - { offsetInCU: 0x15D1E, offset: 0x15D1E, size: 0x8, addend: 0x0, symName: __ZNSt3__16vectorIbNS_9allocatorIbEEED1B8ne180100Ev, symObjAddr: 0x1AA8, symBinAddr: 0x100004800, symSize: 0x2C }
  - { offsetInCU: 0x15D48, offset: 0x15D48, size: 0x8, addend: 0x0, symName: __ZNSt3__114basic_ifstreamIcNS_11char_traitsIcEEE5closeEv, symObjAddr: 0x1AD4, symBinAddr: 0x10000482C, symSize: 0x58 }
  - { offsetInCU: 0x15D6F, offset: 0x15D6F, size: 0x8, addend: 0x0, symName: __ZNSt3__16vectorINS0_IbNS_9allocatorIbEEEENS1_IS3_EEED1B8ne180100Ev, symObjAddr: 0x1B2C, symBinAddr: 0x100004884, symSize: 0x2C }
  - { offsetInCU: 0x15D99, offset: 0x15D99, size: 0x8, addend: 0x0, symName: __ZNKSt3__112basic_stringIcNS_11char_traitsIcEENS_9allocatorIcEEE16find_last_not_ofB8ne180100EPKcm, symObjAddr: 0x1B58, symBinAddr: 0x1000048B0, symSize: 0x74 }
  - { offsetInCU: 0x15DDE, offset: 0x15DDE, size: 0x8, addend: 0x0, symName: __ZNKSt3__112basic_stringIcNS_11char_traitsIcEENS_9allocatorIcEEE5emptyB8ne180100Ev, symObjAddr: 0x1BCC, symBinAddr: 0x100004924, symSize: 0x30 }
  - { offsetInCU: 0x15E04, offset: 0x15E04, size: 0x8, addend: 0x0, symName: __ZNSt3__112basic_stringIcNS_11char_traitsIcEENS_9allocatorIcEEEixB8ne180100Em, symObjAddr: 0x1BFC, symBinAddr: 0x100004954, symSize: 0x48 }
  - { offsetInCU: 0x15E39, offset: 0x15E39, size: 0x8, addend: 0x0, symName: __ZNKSt3__112basic_stringIcNS_11char_traitsIcEENS_9allocatorIcEEE6substrB8ne180100Emm, symObjAddr: 0x1C44, symBinAddr: 0x10000499C, symSize: 0x68 }
  - { offsetInCU: 0x15E7D, offset: 0x15E7D, size: 0x8, addend: 0x0, symName: __ZNK12AsteroidDash16print_space_gridEv, symObjAddr: 0x1D64, symBinAddr: 0x100004ABC, symSize: 0x214 }
  - { offsetInCU: 0x15F47, offset: 0x15F47, size: 0x8, addend: 0x0, symName: __ZNKSt3__16vectorINS0_IiNS_9allocatorIiEEEENS1_IS3_EEE5beginB8ne180100Ev, symObjAddr: 0x1F78, symBinAddr: 0x100004CD0, symSize: 0x30 }
  - { offsetInCU: 0x15F6E, offset: 0x15F6E, size: 0x8, addend: 0x0, symName: __ZNKSt3__16vectorINS0_IiNS_9allocatorIiEEEENS1_IS3_EEE3endB8ne180100Ev, symObjAddr: 0x1FA8, symBinAddr: 0x100004D00, symSize: 0x30 }
  - { offsetInCU: 0x15F95, offset: 0x15F95, size: 0x8, addend: 0x0, symName: __ZNKSt3__111__wrap_iterIPKNS_6vectorIiNS_9allocatorIiEEEEEdeB8ne180100Ev, symObjAddr: 0x200C, symBinAddr: 0x100004D64, symSize: 0x18 }
  - { offsetInCU: 0x15FBB, offset: 0x15FBB, size: 0x8, addend: 0x0, symName: __ZNKSt3__16vectorIiNS_9allocatorIiEEE5beginB8ne180100Ev, symObjAddr: 0x2024, symBinAddr: 0x100004D7C, symSize: 0x30 }
  - { offsetInCU: 0x15FE2, offset: 0x15FE2, size: 0x8, addend: 0x0, symName: __ZNKSt3__16vectorIiNS_9allocatorIiEEE3endB8ne180100Ev, symObjAddr: 0x2054, symBinAddr: 0x100004DAC, symSize: 0x30 }
  - { offsetInCU: 0x16009, offset: 0x16009, size: 0x8, addend: 0x0, symName: __ZNKSt3__111__wrap_iterIPKiEdeB8ne180100Ev, symObjAddr: 0x20B8, symBinAddr: 0x100004E10, symSize: 0x18 }
  - { offsetInCU: 0x1602F, offset: 0x1602F, size: 0x8, addend: 0x0, symName: __ZNSt3__111__wrap_iterIPKiEppB8ne180100Ev, symObjAddr: 0x20D0, symBinAddr: 0x100004E28, symSize: 0x20 }
  - { offsetInCU: 0x16055, offset: 0x16055, size: 0x8, addend: 0x0, symName: __ZNSt3__111__wrap_iterIPKNS_6vectorIiNS_9allocatorIiEEEEEppB8ne180100Ev, symObjAddr: 0x20F0, symBinAddr: 0x100004E48, symSize: 0x20 }
  - { offsetInCU: 0x1607B, offset: 0x1607B, size: 0x8, addend: 0x0, symName: __ZN12AsteroidDash10clear_gridEv, symObjAddr: 0x2110, symBinAddr: 0x100004E68, symSize: 0xBC }
  - { offsetInCU: 0x160F6, offset: 0x160F6, size: 0x8, addend: 0x0, symName: __ZNKSt3__16vectorINS0_IiNS_9allocatorIiEEEENS1_IS3_EEE5emptyB8ne180100Ev, symObjAddr: 0x21CC, symBinAddr: 0x100004F24, symSize: 0x28 }
  - { offsetInCU: 0x1611C, offset: 0x1611C, size: 0x8, addend: 0x0, symName: __ZNSt3__16vectorINS0_IiNS_9allocatorIiEEEENS1_IS3_EEE5beginB8ne180100Ev, symObjAddr: 0x21F4, symBinAddr: 0x100004F4C, symSize: 0x30 }
  - { offsetInCU: 0x16143, offset: 0x16143, size: 0x8, addend: 0x0, symName: __ZNSt3__16vectorINS0_IiNS_9allocatorIiEEEENS1_IS3_EEE3endB8ne180100Ev, symObjAddr: 0x2224, symBinAddr: 0x100004F7C, symSize: 0x30 }
  - { offsetInCU: 0x1616A, offset: 0x1616A, size: 0x8, addend: 0x0, symName: __ZNKSt3__111__wrap_iterIPNS_6vectorIiNS_9allocatorIiEEEEEdeB8ne180100Ev, symObjAddr: 0x2288, symBinAddr: 0x100004FE0, symSize: 0x18 }
  - { offsetInCU: 0x16190, offset: 0x16190, size: 0x8, addend: 0x0, symName: __ZNSt3__16vectorIiNS_9allocatorIiEEE5beginB8ne180100Ev, symObjAddr: 0x22E4, symBinAddr: 0x10000503C, symSize: 0x30 }
  - { offsetInCU: 0x161B7, offset: 0x161B7, size: 0x8, addend: 0x0, symName: __ZNSt3__16vectorIiNS_9allocatorIiEEE3endB8ne180100Ev, symObjAddr: 0x2314, symBinAddr: 0x10000506C, symSize: 0x30 }
  - { offsetInCU: 0x161DE, offset: 0x161DE, size: 0x8, addend: 0x0, symName: __ZNSt3__111__wrap_iterIPNS_6vectorIiNS_9allocatorIiEEEEEppB8ne180100Ev, symObjAddr: 0x2344, symBinAddr: 0x10000509C, symSize: 0x20 }
  - { offsetInCU: 0x16204, offset: 0x16204, size: 0x8, addend: 0x0, symName: __ZN12AsteroidDash21update_ammo_positionsEv, symObjAddr: 0x2364, symBinAddr: 0x1000050BC, symSize: 0x54 }
  - { offsetInCU: 0x1623C, offset: 0x1623C, size: 0x8, addend: 0x0, symName: __ZN12AsteroidDash22handle_ammo_collisionsEv, symObjAddr: 0x23B8, symBinAddr: 0x100005110, symSize: 0x3AC }
  - { offsetInCU: 0x162F7, offset: 0x162F7, size: 0x8, addend: 0x0, symName: __ZNKSt3__16vectorINS0_IbNS_9allocatorIbEEEENS1_IS3_EEE5emptyB8ne180100Ev, symObjAddr: 0x2764, symBinAddr: 0x1000054BC, symSize: 0x28 }
  - { offsetInCU: 0x1631D, offset: 0x1631D, size: 0x8, addend: 0x0, symName: __ZNKSt3__16vectorINS0_IbNS_9allocatorIbEEEENS1_IS3_EEE4sizeB8ne180100Ev, symObjAddr: 0x278C, symBinAddr: 0x1000054E4, symSize: 0x28 }
  - { offsetInCU: 0x16343, offset: 0x16343, size: 0x8, addend: 0x0, symName: __ZNSt3__16vectorINS0_IbNS_9allocatorIbEEEENS1_IS3_EEEixB8ne180100Em, symObjAddr: 0x27B4, symBinAddr: 0x10000550C, symSize: 0x2C }
  - { offsetInCU: 0x1637A, offset: 0x1637A, size: 0x8, addend: 0x0, symName: __ZNKSt3__16vectorIbNS_9allocatorIbEEE4sizeB8ne180100Ev, symObjAddr: 0x27E0, symBinAddr: 0x100005538, symSize: 0x18 }
  - { offsetInCU: 0x163A0, offset: 0x163A0, size: 0x8, addend: 0x0, symName: __ZNSt3__16vectorIbNS_9allocatorIbEEEixB8ne180100Em, symObjAddr: 0x27F8, symBinAddr: 0x100005550, symSize: 0x3C }
  - { offsetInCU: 0x163D5, offset: 0x163D5, size: 0x8, addend: 0x0, symName: __ZNKSt3__115__bit_referenceINS_6vectorIbNS_9allocatorIbEEEELb1EEcvbB8ne180100Ev, symObjAddr: 0x2834, symBinAddr: 0x10000558C, symSize: 0x2C }
  - { offsetInCU: 0x163FB, offset: 0x163FB, size: 0x8, addend: 0x0, symName: __ZNSt3__16vectorINS0_IiNS_9allocatorIiEEEENS1_IS3_EEEixB8ne180100Em, symObjAddr: 0x2860, symBinAddr: 0x1000055B8, symSize: 0x2C }
  - { offsetInCU: 0x16432, offset: 0x16432, size: 0x8, addend: 0x0, symName: __ZNKSt3__16vectorIiNS_9allocatorIiEEE4sizeB8ne180100Ev, symObjAddr: 0x288C, symBinAddr: 0x1000055E4, symSize: 0x28 }
  - { offsetInCU: 0x16458, offset: 0x16458, size: 0x8, addend: 0x0, symName: __ZNKSt3__16vectorINS0_IiNS_9allocatorIiEEEENS1_IS3_EEE4sizeB8ne180100Ev, symObjAddr: 0x28B4, symBinAddr: 0x10000560C, symSize: 0x28 }
  - { offsetInCU: 0x1647E, offset: 0x1647E, size: 0x8, addend: 0x0, symName: __ZN12AsteroidDash19handle_asteroid_hitEP15CelestialObjectiiP4Ammo, symObjAddr: 0x28DC, symBinAddr: 0x100005634, symSize: 0x414 }
  - { offsetInCU: 0x16685, offset: 0x16685, size: 0x8, addend: 0x0, symName: __ZNSt3__115__bit_referenceINS_6vectorIbNS_9allocatorIbEEEELb1EEaSB8ne180100Eb, symObjAddr: 0x2CF0, symBinAddr: 0x100005A48, symSize: 0x6C }
  - { offsetInCU: 0x166B9, offset: 0x166B9, size: 0x8, addend: 0x0, symName: __ZNSt3__16vectorINS0_IbNS_9allocatorIbEEEENS1_IS3_EEEaSB8ne180100ERKS5_, symObjAddr: 0x2D5C, symBinAddr: 0x100005AB4, symSize: 0x68 }
  - { offsetInCU: 0x166EF, offset: 0x166EF, size: 0x8, addend: 0x0, symName: __ZNSt3__16vectorINS0_IbNS_9allocatorIbEEEENS1_IS3_EEE5beginB8ne180100Ev, symObjAddr: 0x2DC4, symBinAddr: 0x100005B1C, symSize: 0x30 }
  - { offsetInCU: 0x16716, offset: 0x16716, size: 0x8, addend: 0x0, symName: __ZNSt3__16vectorINS0_IbNS_9allocatorIbEEEENS1_IS3_EEE3endB8ne180100Ev, symObjAddr: 0x2DF4, symBinAddr: 0x100005B4C, symSize: 0x30 }
  - { offsetInCU: 0x1673D, offset: 0x1673D, size: 0x8, addend: 0x0, symName: __ZNKSt3__111__wrap_iterIPNS_6vectorIbNS_9allocatorIbEEEEEdeB8ne180100Ev, symObjAddr: 0x2E58, symBinAddr: 0x100005BB0, symSize: 0x18 }
  - { offsetInCU: 0x16763, offset: 0x16763, size: 0x8, addend: 0x0, symName: __ZNKSt3__16vectorIbNS_9allocatorIbEEE5beginB8ne180100Ev, symObjAddr: 0x2E70, symBinAddr: 0x100005BC8, symSize: 0x38 }
  - { offsetInCU: 0x16789, offset: 0x16789, size: 0x8, addend: 0x0, symName: __ZNKSt3__16vectorIbNS_9allocatorIbEEE3endB8ne180100Ev, symObjAddr: 0x2EA8, symBinAddr: 0x100005C00, symSize: 0x38 }
  - { offsetInCU: 0x167AF, offset: 0x167AF, size: 0x8, addend: 0x0, symName: __ZNKSt3__114__bit_iteratorINS_6vectorIbNS_9allocatorIbEEEELb1ELm0EEdeB8ne180100Ev, symObjAddr: 0x2F14, symBinAddr: 0x100005C6C, symSize: 0x44 }
  - { offsetInCU: 0x167D5, offset: 0x167D5, size: 0x8, addend: 0x0, symName: __ZNKSt3__121__bit_const_referenceINS_6vectorIbNS_9allocatorIbEEEEEcvbB8ne180100Ev, symObjAddr: 0x2F58, symBinAddr: 0x100005CB0, symSize: 0x2C }
  - { offsetInCU: 0x167FB, offset: 0x167FB, size: 0x8, addend: 0x0, symName: __ZNSt3__114__bit_iteratorINS_6vectorIbNS_9allocatorIbEEEELb1ELm0EEppB8ne180100Ev, symObjAddr: 0x2F84, symBinAddr: 0x100005CDC, symSize: 0x5C }
  - { offsetInCU: 0x16821, offset: 0x16821, size: 0x8, addend: 0x0, symName: __ZNSt3__111__wrap_iterIPNS_6vectorIbNS_9allocatorIbEEEEEppB8ne180100Ev, symObjAddr: 0x2FE0, symBinAddr: 0x100005D38, symSize: 0x20 }
  - { offsetInCU: 0x16847, offset: 0x16847, size: 0x8, addend: 0x0, symName: __ZNSt3__16vectorIbNS_9allocatorIbEEE5beginB8ne180100Ev, symObjAddr: 0x3000, symBinAddr: 0x100005D58, symSize: 0x30 }
  - { offsetInCU: 0x1686D, offset: 0x1686D, size: 0x8, addend: 0x0, symName: __ZNSt3__16vectorIbNS_9allocatorIbEEE3endB8ne180100Ev, symObjAddr: 0x3030, symBinAddr: 0x100005D88, symSize: 0x30 }
  - { offsetInCU: 0x16893, offset: 0x16893, size: 0x8, addend: 0x0, symName: __ZNKSt3__114__bit_iteratorINS_6vectorIbNS_9allocatorIbEEEELb0ELm0EEdeB8ne180100Ev, symObjAddr: 0x3094, symBinAddr: 0x100005DEC, symSize: 0x44 }
  - { offsetInCU: 0x168B9, offset: 0x168B9, size: 0x8, addend: 0x0, symName: __ZNSt3__114__bit_iteratorINS_6vectorIbNS_9allocatorIbEEEELb0ELm0EEppB8ne180100Ev, symObjAddr: 0x30D8, symBinAddr: 0x100005E30, symSize: 0x5C }
  - { offsetInCU: 0x168DF, offset: 0x168DF, size: 0x8, addend: 0x0, symName: __ZN12AsteroidDash24handle_player_collisionsEv, symObjAddr: 0x3134, symBinAddr: 0x100005E8C, symSize: 0xD4 }
  - { offsetInCU: 0x16917, offset: 0x16917, size: 0x8, addend: 0x0, symName: __ZN12AsteroidDash29check_object_player_collisionEP15CelestialObject, symObjAddr: 0x3208, symBinAddr: 0x100005F60, symSize: 0x234 }
  - { offsetInCU: 0x169B5, offset: 0x169B5, size: 0x8, addend: 0x0, symName: __ZNK12AsteroidDash17is_valid_positionEii, symObjAddr: 0x343C, symBinAddr: 0x100006194, symSize: 0xCC }
  - { offsetInCU: 0x169FC, offset: 0x169FC, size: 0x8, addend: 0x0, symName: __ZNK12AsteroidDash24is_collision_with_playerEii, symObjAddr: 0x3508, symBinAddr: 0x100006260, symSize: 0x1B0 }
  - { offsetInCU: 0x16A43, offset: 0x16A43, size: 0x8, addend: 0x0, symName: __ZN12AsteroidDash23handle_collision_effectEP15CelestialObject, symObjAddr: 0x36B8, symBinAddr: 0x100006410, symSize: 0xA4 }
  - { offsetInCU: 0x16A7B, offset: 0x16A7B, size: 0x8, addend: 0x0, symName: __ZNKSt3__16vectorINS0_IiNS_9allocatorIiEEEENS1_IS3_EEEixB8ne180100Em, symObjAddr: 0x375C, symBinAddr: 0x1000064B4, symSize: 0x2C }
  - { offsetInCU: 0x16AB2, offset: 0x16AB2, size: 0x8, addend: 0x0, symName: __ZNSt3__16vectorINS0_IbNS_9allocatorIbEEEENS1_IS3_EEE5clearB8ne180100Ev, symObjAddr: 0x3788, symBinAddr: 0x1000064E0, symSize: 0x44 }
  - { offsetInCU: 0x16AE7, offset: 0x16AE7, size: 0x8, addend: 0x0, symName: __ZN12AsteroidDash12cleanup_ammoEv, symObjAddr: 0x37CC, symBinAddr: 0x100006524, symSize: 0x178 }
  - { offsetInCU: 0x16B2E, offset: 0x16B2E, size: 0x8, addend: 0x0, symName: __ZN4AmmoD1Ev, symObjAddr: 0x3944, symBinAddr: 0x10000669C, symSize: 0x2C }
  - { offsetInCU: 0x16B5B, offset: 0x16B5B, size: 0x8, addend: 0x0, symName: __ZN12AsteroidDash11draw_playerEv, symObjAddr: 0x3970, symBinAddr: 0x1000066C8, symSize: 0x188 }
  - { offsetInCU: 0x16BEA, offset: 0x16BEA, size: 0x8, addend: 0x0, symName: __ZNSt3__16vectorIiNS_9allocatorIiEEEixB8ne180100Em, symObjAddr: 0x3AF8, symBinAddr: 0x100006850, symSize: 0x24 }
  - { offsetInCU: 0x16C21, offset: 0x16C21, size: 0x8, addend: 0x0, symName: __ZN12AsteroidDash22draw_celestial_objectsEv, symObjAddr: 0x3B1C, symBinAddr: 0x100006874, symSize: 0x27C }
  - { offsetInCU: 0x16CBF, offset: 0x16CBF, size: 0x8, addend: 0x0, symName: __ZN12AsteroidDash9draw_ammoEv, symObjAddr: 0x3D98, symBinAddr: 0x100006AF0, symSize: 0x100 }
  - { offsetInCU: 0x16CF7, offset: 0x16CF7, size: 0x8, addend: 0x0, symName: __ZN12AsteroidDash17draw_game_objectsEv, symObjAddr: 0x3E98, symBinAddr: 0x100006BF0, symSize: 0x38 }
  - { offsetInCU: 0x16D20, offset: 0x16D20, size: 0x8, addend: 0x0, symName: __ZN12AsteroidDash18update_leaderboardEv, symObjAddr: 0x3ED0, symBinAddr: 0x100006C28, symSize: 0xB8 }
  - { offsetInCU: 0x16D58, offset: 0x16D58, size: 0x8, addend: 0x0, symName: __ZN12AsteroidDash5shootEv, symObjAddr: 0x3F88, symBinAddr: 0x100006CE0, symSize: 0x158 }
  - { offsetInCU: 0x16DCB, offset: 0x16DCB, size: 0x8, addend: 0x0, symName: __ZN4AmmoC1Eii, symObjAddr: 0x40E0, symBinAddr: 0x100006E38, symSize: 0x3C }
  - { offsetInCU: 0x16E16, offset: 0x16E16, size: 0x8, addend: 0x0, symName: __ZN12AsteroidDash10get_playerEv, symObjAddr: 0x411C, symBinAddr: 0x100006E74, symSize: 0x18 }
  - { offsetInCU: 0x16E3F, offset: 0x16E3F, size: 0x8, addend: 0x0, symName: __ZNK12AsteroidDash14get_grid_widthEv, symObjAddr: 0x4134, symBinAddr: 0x100006E8C, symSize: 0x30 }
  - { offsetInCU: 0x16E68, offset: 0x16E68, size: 0x8, addend: 0x0, symName: __ZNK12AsteroidDash15get_grid_heightEv, symObjAddr: 0x4164, symBinAddr: 0x100006EBC, symSize: 0x28 }
  - { offsetInCU: 0x16E91, offset: 0x16E91, size: 0x8, addend: 0x0, symName: __ZN12AsteroidDashD2Ev, symObjAddr: 0x418C, symBinAddr: 0x100006EE4, symSize: 0x18C }
  - { offsetInCU: 0x16F24, offset: 0x16F24, size: 0x8, addend: 0x0, symName: __ZN6PlayerD1Ev, symObjAddr: 0x4318, symBinAddr: 0x100007070, symSize: 0x2C }
  - { offsetInCU: 0x16F50, offset: 0x16F50, size: 0x8, addend: 0x0, symName: __ZN12AsteroidDashD1Ev, symObjAddr: 0x4344, symBinAddr: 0x10000709C, symSize: 0x2C }
  - { offsetInCU: 0x16F7D, offset: 0x16F7D, size: 0x8, addend: 0x0, symName: __ZN12AsteroidDashD0Ev, symObjAddr: 0x4370, symBinAddr: 0x1000070C8, symSize: 0x30 }
  - { offsetInCU: 0x16FAA, offset: 0x16FAA, size: 0x8, addend: 0x0, symName: __ZN4AmmoC2Eii, symObjAddr: 0x43A0, symBinAddr: 0x1000070F8, symSize: 0x30 }
  - { offsetInCU: 0x16FF5, offset: 0x16FF5, size: 0x8, addend: 0x0, symName: __ZN4AmmoD2Ev, symObjAddr: 0x43D0, symBinAddr: 0x100007128, symSize: 0x14 }
  - { offsetInCU: 0x17022, offset: 0x17022, size: 0x8, addend: 0x0, symName: __ZN11LeaderboardC2Ev, symObjAddr: 0x43E4, symBinAddr: 0x10000713C, symSize: 0x28 }
  - { offsetInCU: 0x1704E, offset: 0x1704E, size: 0x8, addend: 0x0, symName: __ZNKSt3__111__wrap_iterIPcE4baseB8ne180100Ev, symObjAddr: 0x4454, symBinAddr: 0x1000071AC, symSize: 0x18 }
  - { offsetInCU: 0x17074, offset: 0x17074, size: 0x8, addend: 0x0, symName: __ZNSt3__114basic_ifstreamIcNS_11char_traitsIcEEED2Ev, symObjAddr: 0x446C, symBinAddr: 0x1000071C4, symSize: 0x64 }
  - { offsetInCU: 0x170AE, offset: 0x170AE, size: 0x8, addend: 0x0, symName: __ZTv0_n24_NSt3__114basic_ifstreamIcNS_11char_traitsIcEEED1Ev, symObjAddr: 0x44D0, symBinAddr: 0x100007228, symSize: 0x28 }
  - { offsetInCU: 0x170C5, offset: 0x170C5, size: 0x8, addend: 0x0, symName: __ZNKSt3__111__wrap_iterIPKNS_6vectorIiNS_9allocatorIiEEEEE4baseB8ne180100Ev, symObjAddr: 0x4540, symBinAddr: 0x100007298, symSize: 0x18 }
  - { offsetInCU: 0x170EB, offset: 0x170EB, size: 0x8, addend: 0x0, symName: __ZNKSt3__111__wrap_iterIPKiE4baseB8ne180100Ev, symObjAddr: 0x45A0, symBinAddr: 0x1000072F8, symSize: 0x18 }
  - { offsetInCU: 0x17111, offset: 0x17111, size: 0x8, addend: 0x0, symName: __ZNKSt3__111__wrap_iterIPNS_6vectorIiNS_9allocatorIiEEEEE4baseB8ne180100Ev, symObjAddr: 0x4600, symBinAddr: 0x100007358, symSize: 0x18 }
  - { offsetInCU: 0x17137, offset: 0x17137, size: 0x8, addend: 0x0, symName: __ZNKSt3__111__wrap_iterIPNS_6vectorIbNS_9allocatorIbEEEEE4baseB8ne180100Ev, symObjAddr: 0x4660, symBinAddr: 0x1000073B8, symSize: 0x18 }
  - { offsetInCU: 0x1715D, offset: 0x1715D, size: 0x8, addend: 0x0, symName: __ZN6PlayerD2Ev, symObjAddr: 0x4678, symBinAddr: 0x1000073D0, symSize: 0x38 }
  - { offsetInCU: 0x17189, offset: 0x17189, size: 0x8, addend: 0x0, symName: __ZNSt3__16vectorINS0_IiNS_9allocatorIiEEEENS1_IS3_EEEC2B8ne180100Ev, symObjAddr: 0x46B0, symBinAddr: 0x100007408, symSize: 0x4C }
  - { offsetInCU: 0x171BD, offset: 0x171BD, size: 0x8, addend: 0x0, symName: __ZNSt3__117__compressed_pairIPNS_6vectorIiNS_9allocatorIiEEEENS2_IS4_EEEC1B8ne180100IDnNS_18__default_init_tagEEEOT_OT0_, symObjAddr: 0x46FC, symBinAddr: 0x100007454, symSize: 0x3C }
  - { offsetInCU: 0x17215, offset: 0x17215, size: 0x8, addend: 0x0, symName: __ZNSt3__117__compressed_pairIPNS_6vectorIiNS_9allocatorIiEEEENS2_IS4_EEEC2B8ne180100IDnNS_18__default_init_tagEEEOT_OT0_, symObjAddr: 0x4738, symBinAddr: 0x100007490, symSize: 0x40 }
  - { offsetInCU: 0x1726D, offset: 0x1726D, size: 0x8, addend: 0x0, symName: __ZNSt3__122__compressed_pair_elemIPNS_6vectorIiNS_9allocatorIiEEEELi0ELb0EEC2B8ne180100IDnvEEOT_, symObjAddr: 0x4778, symBinAddr: 0x1000074D0, symSize: 0x1C }
  - { offsetInCU: 0x172AF, offset: 0x172AF, size: 0x8, addend: 0x0, symName: __ZNSt3__122__compressed_pair_elemINS_9allocatorINS_6vectorIiNS1_IiEEEEEELi1ELb1EEC2B8ne180100ENS_18__default_init_tagE, symObjAddr: 0x4794, symBinAddr: 0x1000074EC, symSize: 0x2C }
  - { offsetInCU: 0x172E3, offset: 0x172E3, size: 0x8, addend: 0x0, symName: __ZNSt3__19allocatorINS_6vectorIiNS0_IiEEEEEC2B8ne180100Ev, symObjAddr: 0x47C0, symBinAddr: 0x100007518, symSize: 0x2C }
  - { offsetInCU: 0x1730D, offset: 0x1730D, size: 0x8, addend: 0x0, symName: __ZNSt3__116__non_trivial_ifILb1ENS_9allocatorINS_6vectorIiNS1_IiEEEEEEEC2B8ne180100Ev, symObjAddr: 0x47EC, symBinAddr: 0x100007544, symSize: 0x14 }
  - { offsetInCU: 0x17337, offset: 0x17337, size: 0x8, addend: 0x0, symName: __ZNSt3__16vectorINS0_IiNS_9allocatorIiEEEENS1_IS3_EEED2B8ne180100Ev, symObjAddr: 0x4800, symBinAddr: 0x100007558, symSize: 0x44 }
  - { offsetInCU: 0x17361, offset: 0x17361, size: 0x8, addend: 0x0, symName: __ZNSt3__16vectorINS0_IiNS_9allocatorIiEEEENS1_IS3_EEE16__destroy_vectorC1B8ne180100ERS5_, symObjAddr: 0x4844, symBinAddr: 0x10000759C, symSize: 0x34 }
  - { offsetInCU: 0x1739A, offset: 0x1739A, size: 0x8, addend: 0x0, symName: __ZNSt3__16vectorINS0_IiNS_9allocatorIiEEEENS1_IS3_EEE16__destroy_vectorclB8ne180100Ev, symObjAddr: 0x4878, symBinAddr: 0x1000075D0, symSize: 0x90 }
  - { offsetInCU: 0x173C0, offset: 0x173C0, size: 0x8, addend: 0x0, symName: __ZNSt3__16vectorINS0_IiNS_9allocatorIiEEEENS1_IS3_EEE16__destroy_vectorC2B8ne180100ERS5_, symObjAddr: 0x4908, symBinAddr: 0x100007660, symSize: 0x20 }
  - { offsetInCU: 0x173F9, offset: 0x173F9, size: 0x8, addend: 0x0, symName: __ZNSt3__16vectorINS0_IiNS_9allocatorIiEEEENS1_IS3_EEE7__clearB8ne180100Ev, symObjAddr: 0x4928, symBinAddr: 0x100007680, symSize: 0x28 }
  - { offsetInCU: 0x1741F, offset: 0x1741F, size: 0x8, addend: 0x0, symName: __ZNKSt3__16vectorINS0_IiNS_9allocatorIiEEEENS1_IS3_EEE17__annotate_deleteB8ne180100Ev, symObjAddr: 0x4950, symBinAddr: 0x1000076A8, symSize: 0x10 }
  - { offsetInCU: 0x17445, offset: 0x17445, size: 0x8, addend: 0x0, symName: __ZNSt3__116allocator_traitsINS_9allocatorINS_6vectorIiNS1_IiEEEEEEE10deallocateB8ne180100ERS5_PS4_m, symObjAddr: 0x4960, symBinAddr: 0x1000076B8, symSize: 0x34 }
  - { offsetInCU: 0x17487, offset: 0x17487, size: 0x8, addend: 0x0, symName: __ZNSt3__16vectorINS0_IiNS_9allocatorIiEEEENS1_IS3_EEE7__allocB8ne180100Ev, symObjAddr: 0x4994, symBinAddr: 0x1000076EC, symSize: 0x28 }
  - { offsetInCU: 0x174AD, offset: 0x174AD, size: 0x8, addend: 0x0, symName: __ZNKSt3__16vectorINS0_IiNS_9allocatorIiEEEENS1_IS3_EEE8capacityB8ne180100Ev, symObjAddr: 0x49BC, symBinAddr: 0x100007714, symSize: 0x40 }
  - { offsetInCU: 0x174D3, offset: 0x174D3, size: 0x8, addend: 0x0, symName: __ZNSt3__16vectorINS0_IiNS_9allocatorIiEEEENS1_IS3_EEE22__base_destruct_at_endB8ne180100EPS3_, symObjAddr: 0x49FC, symBinAddr: 0x100007754, symSize: 0x8C }
  - { offsetInCU: 0x17517, offset: 0x17517, size: 0x8, addend: 0x0, symName: __ZNSt3__116allocator_traitsINS_9allocatorINS_6vectorIiNS1_IiEEEEEEE7destroyB8ne180100IS4_vEEvRS5_PT_, symObjAddr: 0x4A88, symBinAddr: 0x1000077E0, symSize: 0x2C }
  - { offsetInCU: 0x17554, offset: 0x17554, size: 0x8, addend: 0x0, symName: __ZNSt3__19allocatorINS_6vectorIiNS0_IiEEEEE7destroyB8ne180100EPS3_, symObjAddr: 0x4AC8, symBinAddr: 0x100007820, symSize: 0x28 }
  - { offsetInCU: 0x17588, offset: 0x17588, size: 0x8, addend: 0x0, symName: __ZNSt3__19allocatorINS_6vectorIiNS0_IiEEEEE10deallocateB8ne180100EPS3_m, symObjAddr: 0x4AF0, symBinAddr: 0x100007848, symSize: 0x44 }
  - { offsetInCU: 0x175CA, offset: 0x175CA, size: 0x8, addend: 0x0, symName: __ZNSt3__117__compressed_pairIPNS_6vectorIiNS_9allocatorIiEEEENS2_IS4_EEE6secondB8ne180100Ev, symObjAddr: 0x4BB0, symBinAddr: 0x100007908, symSize: 0x24 }
  - { offsetInCU: 0x175F0, offset: 0x175F0, size: 0x8, addend: 0x0, symName: __ZNSt3__122__compressed_pair_elemINS_9allocatorINS_6vectorIiNS1_IiEEEEEELi1ELb1EE5__getB8ne180100Ev, symObjAddr: 0x4BD4, symBinAddr: 0x10000792C, symSize: 0x14 }
  - { offsetInCU: 0x17616, offset: 0x17616, size: 0x8, addend: 0x0, symName: __ZNKSt3__16vectorINS0_IiNS_9allocatorIiEEEENS1_IS3_EEE9__end_capB8ne180100Ev, symObjAddr: 0x4BE8, symBinAddr: 0x100007940, symSize: 0x28 }
  - { offsetInCU: 0x1763C, offset: 0x1763C, size: 0x8, addend: 0x0, symName: __ZNKSt3__117__compressed_pairIPNS_6vectorIiNS_9allocatorIiEEEENS2_IS4_EEE5firstB8ne180100Ev, symObjAddr: 0x4C10, symBinAddr: 0x100007968, symSize: 0x24 }
  - { offsetInCU: 0x17662, offset: 0x17662, size: 0x8, addend: 0x0, symName: __ZNKSt3__122__compressed_pair_elemIPNS_6vectorIiNS_9allocatorIiEEEELi0ELb0EE5__getB8ne180100Ev, symObjAddr: 0x4C34, symBinAddr: 0x10000798C, symSize: 0x14 }
  - { offsetInCU: 0x17688, offset: 0x17688, size: 0x8, addend: 0x0, symName: __ZNSt3__19basic_iosIcNS_11char_traitsIcEEEC2B8ne180100Ev, symObjAddr: 0x4C48, symBinAddr: 0x1000079A0, symSize: 0x44 }
  - { offsetInCU: 0x176B2, offset: 0x176B2, size: 0x8, addend: 0x0, symName: __ZNSt3__113basic_istreamIcNS_11char_traitsIcEEEC2B8ne180100EPNS_15basic_streambufIcS2_EE, symObjAddr: 0x4C8C, symBinAddr: 0x1000079E4, symSize: 0x64 }
  - { offsetInCU: 0x176F7, offset: 0x176F7, size: 0x8, addend: 0x0, symName: __ZNSt3__113basic_filebufIcNS_11char_traitsIcEEE4openERKNS_12basic_stringIcS2_NS_9allocatorIcEEEEj, symObjAddr: 0x4CF0, symBinAddr: 0x100007A48, symSize: 0x44 }
  - { offsetInCU: 0x1773C, offset: 0x1773C, size: 0x8, addend: 0x0, symName: __ZNSt3__19basic_iosIcNS_11char_traitsIcEEE8setstateB8ne180100Ej, symObjAddr: 0x4D34, symBinAddr: 0x100007A8C, symSize: 0x2C }
  - { offsetInCU: 0x17771, offset: 0x17771, size: 0x8, addend: 0x0, symName: __ZNSt3__18ios_baseC2B8ne180100Ev, symObjAddr: 0x4D60, symBinAddr: 0x100007AB8, symSize: 0x24 }
  - { offsetInCU: 0x1779B, offset: 0x1779B, size: 0x8, addend: 0x0, symName: __ZNSt3__19basic_iosIcNS_11char_traitsIcEEE4initB8ne180100EPNS_15basic_streambufIcS2_EE, symObjAddr: 0x4D84, symBinAddr: 0x100007ADC, symSize: 0x44 }
  - { offsetInCU: 0x177D1, offset: 0x177D1, size: 0x8, addend: 0x0, symName: __ZNSt3__111char_traitsIcE3eofB8ne180100Ev, symObjAddr: 0x4DC8, symBinAddr: 0x100007B20, symSize: 0x8 }
  - { offsetInCU: 0x177E5, offset: 0x177E5, size: 0x8, addend: 0x0, symName: __ZNKSt3__112basic_stringIcNS_11char_traitsIcEENS_9allocatorIcEEE5c_strB8ne180100Ev, symObjAddr: 0x4DD0, symBinAddr: 0x100007B28, symSize: 0x24 }
  - { offsetInCU: 0x1780B, offset: 0x1780B, size: 0x8, addend: 0x0, symName: __ZNKSt3__112basic_stringIcNS_11char_traitsIcEENS_9allocatorIcEEE4dataB8ne180100Ev, symObjAddr: 0x4DF4, symBinAddr: 0x100007B4C, symSize: 0x28 }
  - { offsetInCU: 0x17831, offset: 0x17831, size: 0x8, addend: 0x0, symName: __ZNKSt3__112basic_stringIcNS_11char_traitsIcEENS_9allocatorIcEEE13__get_pointerB8ne180100Ev, symObjAddr: 0x4E30, symBinAddr: 0x100007B88, symSize: 0x54 }
  - { offsetInCU: 0x17857, offset: 0x17857, size: 0x8, addend: 0x0, symName: __ZNKSt3__112basic_stringIcNS_11char_traitsIcEENS_9allocatorIcEEE9__is_longB8ne180100Ev, symObjAddr: 0x4E84, symBinAddr: 0x100007BDC, symSize: 0x38 }
  - { offsetInCU: 0x1787D, offset: 0x1787D, size: 0x8, addend: 0x0, symName: __ZNKSt3__112basic_stringIcNS_11char_traitsIcEENS_9allocatorIcEEE18__get_long_pointerB8ne180100Ev, symObjAddr: 0x4EBC, symBinAddr: 0x100007C14, symSize: 0x28 }
  - { offsetInCU: 0x178A3, offset: 0x178A3, size: 0x8, addend: 0x0, symName: __ZNKSt3__112basic_stringIcNS_11char_traitsIcEENS_9allocatorIcEEE19__get_short_pointerB8ne180100Ev, symObjAddr: 0x4EE4, symBinAddr: 0x100007C3C, symSize: 0x28 }
  - { offsetInCU: 0x178C9, offset: 0x178C9, size: 0x8, addend: 0x0, symName: __ZNKSt3__117__compressed_pairINS_12basic_stringIcNS_11char_traitsIcEENS_9allocatorIcEEE5__repES5_E5firstB8ne180100Ev, symObjAddr: 0x4F0C, symBinAddr: 0x100007C64, symSize: 0x24 }
  - { offsetInCU: 0x178EF, offset: 0x178EF, size: 0x8, addend: 0x0, symName: __ZNKSt3__122__compressed_pair_elemINS_12basic_stringIcNS_11char_traitsIcEENS_9allocatorIcEEE5__repELi0ELb0EE5__getB8ne180100Ev, symObjAddr: 0x4F30, symBinAddr: 0x100007C88, symSize: 0x14 }
  - { offsetInCU: 0x17915, offset: 0x17915, size: 0x8, addend: 0x0, symName: __ZNSt3__114pointer_traitsIPKcE10pointer_toB8ne180100ERS1_, symObjAddr: 0x4F44, symBinAddr: 0x100007C9C, symSize: 0x14 }
  - { offsetInCU: 0x17938, offset: 0x17938, size: 0x8, addend: 0x0, symName: __ZNSt3__18ios_base8setstateB8ne180100Ej, symObjAddr: 0x4F58, symBinAddr: 0x100007CB0, symSize: 0x34 }
  - { offsetInCU: 0x1796E, offset: 0x1796E, size: 0x8, addend: 0x0, symName: __ZNKSt3__19basic_iosIcNS_11char_traitsIcEEE4failB8ne180100Ev, symObjAddr: 0x4F8C, symBinAddr: 0x100007CE4, symSize: 0x28 }
  - { offsetInCU: 0x17994, offset: 0x17994, size: 0x8, addend: 0x0, symName: __ZNKSt3__18ios_base4failB8ne180100Ev, symObjAddr: 0x4FB4, symBinAddr: 0x100007D0C, symSize: 0x28 }
  - { offsetInCU: 0x179BC, offset: 0x179BC, size: 0x8, addend: 0x0, symName: __ZNSt3__111char_traitsIcE6lengthB8ne180100EPKc, symObjAddr: 0x51C8, symBinAddr: 0x100007F20, symSize: 0x34 }
  - { offsetInCU: 0x179FD, offset: 0x179FD, size: 0x8, addend: 0x0, symName: __ZNKSt3__113basic_ostreamIcNS_11char_traitsIcEEE6sentrycvbB8ne180100Ev, symObjAddr: 0x51FC, symBinAddr: 0x100007F54, symSize: 0x1C }
  - { offsetInCU: 0x17A23, offset: 0x17A23, size: 0x8, addend: 0x0, symName: __ZNSt3__119ostreambuf_iteratorIcNS_11char_traitsIcEEEC1B8ne180100ERNS_13basic_ostreamIcS2_EE, symObjAddr: 0x5458, symBinAddr: 0x1000081B0, symSize: 0x34 }
  - { offsetInCU: 0x17A5B, offset: 0x17A5B, size: 0x8, addend: 0x0, symName: __ZNKSt3__18ios_base5flagsB8ne180100Ev, symObjAddr: 0x548C, symBinAddr: 0x1000081E4, symSize: 0x18 }
  - { offsetInCU: 0x17A83, offset: 0x17A83, size: 0x8, addend: 0x0, symName: __ZNKSt3__19basic_iosIcNS_11char_traitsIcEEE4fillB8ne180100Ev, symObjAddr: 0x54A4, symBinAddr: 0x1000081FC, symSize: 0x64 }
  - { offsetInCU: 0x17AAA, offset: 0x17AAA, size: 0x8, addend: 0x0, symName: __ZNKSt3__119ostreambuf_iteratorIcNS_11char_traitsIcEEE6failedB8ne180100Ev, symObjAddr: 0x5508, symBinAddr: 0x100008260, symSize: 0x24 }
  - { offsetInCU: 0x17AD0, offset: 0x17AD0, size: 0x8, addend: 0x0, symName: __ZNKSt3__18ios_base5widthB8ne180100Ev, symObjAddr: 0x552C, symBinAddr: 0x100008284, symSize: 0x18 }
  - { offsetInCU: 0x17AF8, offset: 0x17AF8, size: 0x8, addend: 0x0, symName: __ZNSt3__115basic_streambufIcNS_11char_traitsIcEEE5sputnB8ne180100EPKcl, symObjAddr: 0x5544, symBinAddr: 0x10000829C, symSize: 0x3C }
  - { offsetInCU: 0x17B3A, offset: 0x17B3A, size: 0x8, addend: 0x0, symName: __ZNSt3__112basic_stringIcNS_11char_traitsIcEENS_9allocatorIcEEEC1B8ne180100Emc, symObjAddr: 0x5580, symBinAddr: 0x1000082D8, symSize: 0x3C }
  - { offsetInCU: 0x17B82, offset: 0x17B82, size: 0x8, addend: 0x0, symName: __ZNSt3__18ios_base5widthB8ne180100El, symObjAddr: 0x55BC, symBinAddr: 0x100008314, symSize: 0x2C }
  - { offsetInCU: 0x17BC8, offset: 0x17BC8, size: 0x8, addend: 0x0, symName: __ZNSt3__112basic_stringIcNS_11char_traitsIcEENS_9allocatorIcEEEC2B8ne180100Emc, symObjAddr: 0x55E8, symBinAddr: 0x100008340, symSize: 0x4C }
  - { offsetInCU: 0x17C10, offset: 0x17C10, size: 0x8, addend: 0x0, symName: __ZNSt3__117__compressed_pairINS_12basic_stringIcNS_11char_traitsIcEENS_9allocatorIcEEE5__repES5_EC1B8ne180100INS_18__default_init_tagESA_EEOT_OT0_, symObjAddr: 0x5634, symBinAddr: 0x10000838C, symSize: 0x3C }
  - { offsetInCU: 0x17C68, offset: 0x17C68, size: 0x8, addend: 0x0, symName: __ZNSt3__117__compressed_pairINS_12basic_stringIcNS_11char_traitsIcEENS_9allocatorIcEEE5__repES5_EC2B8ne180100INS_18__default_init_tagESA_EEOT_OT0_, symObjAddr: 0x5670, symBinAddr: 0x1000083C8, symSize: 0x3C }
  - { offsetInCU: 0x17CC0, offset: 0x17CC0, size: 0x8, addend: 0x0, symName: __ZNSt3__122__compressed_pair_elemINS_12basic_stringIcNS_11char_traitsIcEENS_9allocatorIcEEE5__repELi0ELb0EEC2B8ne180100ENS_18__default_init_tagE, symObjAddr: 0x56AC, symBinAddr: 0x100008404, symSize: 0x14 }
  - { offsetInCU: 0x17CF4, offset: 0x17CF4, size: 0x8, addend: 0x0, symName: __ZNSt3__122__compressed_pair_elemINS_9allocatorIcEELi1ELb1EEC2B8ne180100ENS_18__default_init_tagE, symObjAddr: 0x56C0, symBinAddr: 0x100008418, symSize: 0x2C }
  - { offsetInCU: 0x17D28, offset: 0x17D28, size: 0x8, addend: 0x0, symName: __ZNSt3__19allocatorIcEC2B8ne180100Ev, symObjAddr: 0x56EC, symBinAddr: 0x100008444, symSize: 0x2C }
  - { offsetInCU: 0x17D52, offset: 0x17D52, size: 0x8, addend: 0x0, symName: __ZNSt3__116__non_trivial_ifILb1ENS_9allocatorIcEEEC2B8ne180100Ev, symObjAddr: 0x5718, symBinAddr: 0x100008470, symSize: 0x14 }
  - { offsetInCU: 0x17D7C, offset: 0x17D7C, size: 0x8, addend: 0x0, symName: __ZNSt3__119ostreambuf_iteratorIcNS_11char_traitsIcEEEC2B8ne180100ERNS_13basic_ostreamIcS2_EE, symObjAddr: 0x572C, symBinAddr: 0x100008484, symSize: 0x54 }
  - { offsetInCU: 0x17DB4, offset: 0x17DB4, size: 0x8, addend: 0x0, symName: __ZNKSt3__19basic_iosIcNS_11char_traitsIcEEE5rdbufB8ne180100Ev, symObjAddr: 0x5780, symBinAddr: 0x1000084D8, symSize: 0x24 }
  - { offsetInCU: 0x17DDB, offset: 0x17DDB, size: 0x8, addend: 0x0, symName: __ZNKSt3__18ios_base5rdbufB8ne180100Ev, symObjAddr: 0x57A4, symBinAddr: 0x1000084FC, symSize: 0x18 }
  - { offsetInCU: 0x17E01, offset: 0x17E01, size: 0x8, addend: 0x0, symName: __ZNSt3__111char_traitsIcE11eq_int_typeB8ne180100Eii, symObjAddr: 0x57BC, symBinAddr: 0x100008514, symSize: 0x28 }
  - { offsetInCU: 0x17E34, offset: 0x17E34, size: 0x8, addend: 0x0, symName: __ZNKSt3__19basic_iosIcNS_11char_traitsIcEEE5widenB8ne180100Ec, symObjAddr: 0x57E4, symBinAddr: 0x10000853C, symSize: 0x84 }
  - { offsetInCU: 0x17E9C, offset: 0x17E9C, size: 0x8, addend: 0x0, symName: __ZNKSt3__15ctypeIcE5widenB8ne180100Ec, symObjAddr: 0x5894, symBinAddr: 0x1000085EC, symSize: 0x38 }
  - { offsetInCU: 0x17ED1, offset: 0x17ED1, size: 0x8, addend: 0x0, symName: __ZNKSt3__112basic_stringIcNS_11char_traitsIcEENS_9allocatorIcEEE4sizeB8ne180100Ev, symObjAddr: 0x58F0, symBinAddr: 0x100008648, symSize: 0x54 }
  - { offsetInCU: 0x17EF7, offset: 0x17EF7, size: 0x8, addend: 0x0, symName: __ZNKSt3__112basic_stringIcNS_11char_traitsIcEENS_9allocatorIcEEE15__get_long_sizeB8ne180100Ev, symObjAddr: 0x5944, symBinAddr: 0x10000869C, symSize: 0x28 }
  - { offsetInCU: 0x17F1D, offset: 0x17F1D, size: 0x8, addend: 0x0, symName: __ZNKSt3__112basic_stringIcNS_11char_traitsIcEENS_9allocatorIcEEE16__get_short_sizeB8ne180100Ev, symObjAddr: 0x596C, symBinAddr: 0x1000086C4, symSize: 0x34 }
  - { offsetInCU: 0x17F43, offset: 0x17F43, size: 0x8, addend: 0x0, symName: __ZNSt3__112basic_stringIcNS_11char_traitsIcEENS_9allocatorIcEEEC2B8ne180100Ev, symObjAddr: 0x59A0, symBinAddr: 0x1000086F8, symSize: 0x48 }
  - { offsetInCU: 0x17F72, offset: 0x17F72, size: 0x8, addend: 0x0, symName: __ZNSt3__117__compressed_pairINS_12basic_stringIcNS_11char_traitsIcEENS_9allocatorIcEEE5__repES5_EC1B8ne180100INS_16__value_init_tagENS_18__default_init_tagEEEOT_OT0_, symObjAddr: 0x59E8, symBinAddr: 0x100008740, symSize: 0x3C }
  - { offsetInCU: 0x17FCA, offset: 0x17FCA, size: 0x8, addend: 0x0, symName: __ZNKSt3__112basic_stringIcNS_11char_traitsIcEENS_9allocatorIcEEE14__annotate_newB8ne180100Em, symObjAddr: 0x5A24, symBinAddr: 0x10000877C, symSize: 0x14 }
  - { offsetInCU: 0x17FFF, offset: 0x17FFF, size: 0x8, addend: 0x0, symName: __ZNSt3__117__compressed_pairINS_12basic_stringIcNS_11char_traitsIcEENS_9allocatorIcEEE5__repES5_EC2B8ne180100INS_16__value_init_tagENS_18__default_init_tagEEEOT_OT0_, symObjAddr: 0x5A38, symBinAddr: 0x100008790, symSize: 0x3C }
  - { offsetInCU: 0x18057, offset: 0x18057, size: 0x8, addend: 0x0, symName: __ZNSt3__122__compressed_pair_elemINS_12basic_stringIcNS_11char_traitsIcEENS_9allocatorIcEEE5__repELi0ELb0EEC2B8ne180100ENS_16__value_init_tagE, symObjAddr: 0x5A74, symBinAddr: 0x1000087CC, symSize: 0x20 }
  - { offsetInCU: 0x180A9, offset: 0x180A9, size: 0x8, addend: 0x0, symName: __ZNKSt3__113basic_istreamIcNS_11char_traitsIcEEE6sentrycvbB8ne180100Ev, symObjAddr: 0x5CCC, symBinAddr: 0x100008A24, symSize: 0x1C }
  - { offsetInCU: 0x180CF, offset: 0x180CF, size: 0x8, addend: 0x0, symName: __ZNSt3__112basic_stringIcNS_11char_traitsIcEENS_9allocatorIcEEE5clearB8ne180100Ev, symObjAddr: 0x5CE8, symBinAddr: 0x100008A40, symSize: 0x94 }
  - { offsetInCU: 0x18105, offset: 0x18105, size: 0x8, addend: 0x0, symName: __ZNSt3__115basic_streambufIcNS_11char_traitsIcEEE6sbumpcB8ne180100Ev, symObjAddr: 0x5D7C, symBinAddr: 0x100008AD4, symSize: 0x78 }
  - { offsetInCU: 0x1812B, offset: 0x1812B, size: 0x8, addend: 0x0, symName: __ZNSt3__111char_traitsIcE12to_char_typeB8ne180100Ei, symObjAddr: 0x5DF4, symBinAddr: 0x100008B4C, symSize: 0x18 }
  - { offsetInCU: 0x1814F, offset: 0x1814F, size: 0x8, addend: 0x0, symName: __ZNSt3__111char_traitsIcE2eqEcc, symObjAddr: 0x5E0C, symBinAddr: 0x100008B64, symSize: 0x28 }
  - { offsetInCU: 0x18180, offset: 0x18180, size: 0x8, addend: 0x0, symName: __ZNKSt3__112basic_stringIcNS_11char_traitsIcEENS_9allocatorIcEEE8max_sizeB8ne180100Ev, symObjAddr: 0x5E34, symBinAddr: 0x100008B8C, symSize: 0xAC }
  - { offsetInCU: 0x181D2, offset: 0x181D2, size: 0x8, addend: 0x0, symName: __ZNSt3__18ios_base18__setstate_nothrowB8ne180100Ej, symObjAddr: 0x5EE0, symBinAddr: 0x100008C38, symSize: 0x64 }
  - { offsetInCU: 0x18207, offset: 0x18207, size: 0x8, addend: 0x0, symName: __ZNKSt3__19basic_iosIcNS_11char_traitsIcEEE10exceptionsB8ne180100Ev, symObjAddr: 0x5F44, symBinAddr: 0x100008C9C, symSize: 0x24 }
  - { offsetInCU: 0x1822D, offset: 0x1822D, size: 0x8, addend: 0x0, symName: __ZNSt3__111char_traitsIcE6assignB8ne180100ERcRKc, symObjAddr: 0x5F68, symBinAddr: 0x100008CC0, symSize: 0x24 }
  - { offsetInCU: 0x1825E, offset: 0x1825E, size: 0x8, addend: 0x0, symName: __ZNSt3__112basic_stringIcNS_11char_traitsIcEENS_9allocatorIcEEE18__get_long_pointerB8ne180100Ev, symObjAddr: 0x5F8C, symBinAddr: 0x100008CE4, symSize: 0x28 }
  - { offsetInCU: 0x18284, offset: 0x18284, size: 0x8, addend: 0x0, symName: __ZNSt3__112basic_stringIcNS_11char_traitsIcEENS_9allocatorIcEEE15__set_long_sizeB8ne180100Em, symObjAddr: 0x5FB4, symBinAddr: 0x100008D0C, symSize: 0x38 }
  - { offsetInCU: 0x182B9, offset: 0x182B9, size: 0x8, addend: 0x0, symName: __ZNSt3__112basic_stringIcNS_11char_traitsIcEENS_9allocatorIcEEE19__get_short_pointerB8ne180100Ev, symObjAddr: 0x5FEC, symBinAddr: 0x100008D44, symSize: 0x28 }
  - { offsetInCU: 0x182DF, offset: 0x182DF, size: 0x8, addend: 0x0, symName: __ZNSt3__112basic_stringIcNS_11char_traitsIcEENS_9allocatorIcEEE16__set_short_sizeB8ne180100Em, symObjAddr: 0x6014, symBinAddr: 0x100008D6C, symSize: 0x78 }
  - { offsetInCU: 0x18314, offset: 0x18314, size: 0x8, addend: 0x0, symName: __ZNKSt3__112basic_stringIcNS_11char_traitsIcEENS_9allocatorIcEEE17__annotate_shrinkB8ne180100Em, symObjAddr: 0x608C, symBinAddr: 0x100008DE4, symSize: 0x14 }
  - { offsetInCU: 0x18349, offset: 0x18349, size: 0x8, addend: 0x0, symName: __ZNSt3__117__compressed_pairINS_12basic_stringIcNS_11char_traitsIcEENS_9allocatorIcEEE5__repES5_E5firstB8ne180100Ev, symObjAddr: 0x60A0, symBinAddr: 0x100008DF8, symSize: 0x24 }
  - { offsetInCU: 0x1836F, offset: 0x1836F, size: 0x8, addend: 0x0, symName: __ZNSt3__122__compressed_pair_elemINS_12basic_stringIcNS_11char_traitsIcEENS_9allocatorIcEEE5__repELi0ELb0EE5__getB8ne180100Ev, symObjAddr: 0x60C4, symBinAddr: 0x100008E1C, symSize: 0x14 }
  - { offsetInCU: 0x18395, offset: 0x18395, size: 0x8, addend: 0x0, symName: __ZNSt3__114pointer_traitsIPcE10pointer_toB8ne180100ERc, symObjAddr: 0x60D8, symBinAddr: 0x100008E30, symSize: 0x14 }
  - { offsetInCU: 0x183B8, offset: 0x183B8, size: 0x8, addend: 0x0, symName: __ZNSt3__111char_traitsIcE11to_int_typeB8ne180100Ec, symObjAddr: 0x60EC, symBinAddr: 0x100008E44, symSize: 0x14 }
  - { offsetInCU: 0x183E6, offset: 0x183E6, size: 0x8, addend: 0x0, symName: __ZNSt3__116allocator_traitsINS_9allocatorIcEEE8max_sizeB8ne180100IS2_vEEmRKS2_, symObjAddr: 0x6100, symBinAddr: 0x100008E58, symSize: 0x24 }
  - { offsetInCU: 0x18414, offset: 0x18414, size: 0x8, addend: 0x0, symName: __ZNKSt3__112basic_stringIcNS_11char_traitsIcEENS_9allocatorIcEEE7__allocB8ne180100Ev, symObjAddr: 0x6124, symBinAddr: 0x100008E7C, symSize: 0x24 }
  - { offsetInCU: 0x1843A, offset: 0x1843A, size: 0x8, addend: 0x0, symName: __ZNSt3__114numeric_limitsImE3maxB8ne180100Ev, symObjAddr: 0x6148, symBinAddr: 0x100008EA0, symSize: 0x14 }
  - { offsetInCU: 0x1844E, offset: 0x1844E, size: 0x8, addend: 0x0, symName: __ZNKSt3__19allocatorIcE8max_sizeB8ne180100Ev, symObjAddr: 0x615C, symBinAddr: 0x100008EB4, symSize: 0x14 }
  - { offsetInCU: 0x18474, offset: 0x18474, size: 0x8, addend: 0x0, symName: __ZNKSt3__117__compressed_pairINS_12basic_stringIcNS_11char_traitsIcEENS_9allocatorIcEEE5__repES5_E6secondB8ne180100Ev, symObjAddr: 0x6170, symBinAddr: 0x100008EC8, symSize: 0x24 }
  - { offsetInCU: 0x1849A, offset: 0x1849A, size: 0x8, addend: 0x0, symName: __ZNKSt3__122__compressed_pair_elemINS_9allocatorIcEELi1ELb1EE5__getB8ne180100Ev, symObjAddr: 0x6194, symBinAddr: 0x100008EEC, symSize: 0x14 }
  - { offsetInCU: 0x184C0, offset: 0x184C0, size: 0x8, addend: 0x0, symName: __ZNSt3__123__libcpp_numeric_limitsImLb1EE3maxB8ne180100Ev, symObjAddr: 0x61A8, symBinAddr: 0x100008F00, symSize: 0x8 }
  - { offsetInCU: 0x184D4, offset: 0x184D4, size: 0x8, addend: 0x0, symName: __ZNKSt3__18ios_base10exceptionsB8ne180100Ev, symObjAddr: 0x61B0, symBinAddr: 0x100008F08, symSize: 0x18 }
  - { offsetInCU: 0x184FC, offset: 0x184FC, size: 0x8, addend: 0x0, symName: __ZNSt3__16vectorIiNS_9allocatorIiEEEC2B8ne180100Ev, symObjAddr: 0x61C8, symBinAddr: 0x100008F20, symSize: 0x4C }
  - { offsetInCU: 0x18526, offset: 0x18526, size: 0x8, addend: 0x0, symName: __ZNSt3__117__compressed_pairIPiNS_9allocatorIiEEEC1B8ne180100IDnNS_18__default_init_tagEEEOT_OT0_, symObjAddr: 0x6214, symBinAddr: 0x100008F6C, symSize: 0x3C }
  - { offsetInCU: 0x1857E, offset: 0x1857E, size: 0x8, addend: 0x0, symName: __ZNSt3__117__compressed_pairIPiNS_9allocatorIiEEEC2B8ne180100IDnNS_18__default_init_tagEEEOT_OT0_, symObjAddr: 0x6250, symBinAddr: 0x100008FA8, symSize: 0x40 }
  - { offsetInCU: 0x185D6, offset: 0x185D6, size: 0x8, addend: 0x0, symName: __ZNSt3__122__compressed_pair_elemIPiLi0ELb0EEC2B8ne180100IDnvEEOT_, symObjAddr: 0x6290, symBinAddr: 0x100008FE8, symSize: 0x1C }
  - { offsetInCU: 0x18618, offset: 0x18618, size: 0x8, addend: 0x0, symName: __ZNSt3__122__compressed_pair_elemINS_9allocatorIiEELi1ELb1EEC2B8ne180100ENS_18__default_init_tagE, symObjAddr: 0x62AC, symBinAddr: 0x100009004, symSize: 0x2C }
  - { offsetInCU: 0x1864C, offset: 0x1864C, size: 0x8, addend: 0x0, symName: __ZNSt3__19allocatorIiEC2B8ne180100Ev, symObjAddr: 0x62D8, symBinAddr: 0x100009030, symSize: 0x2C }
  - { offsetInCU: 0x18676, offset: 0x18676, size: 0x8, addend: 0x0, symName: __ZNSt3__116__non_trivial_ifILb1ENS_9allocatorIiEEEC2B8ne180100Ev, symObjAddr: 0x6304, symBinAddr: 0x10000905C, symSize: 0x14 }
  - { offsetInCU: 0x186A0, offset: 0x186A0, size: 0x8, addend: 0x0, symName: __ZNSt3__16vectorIiNS_9allocatorIiEEED2B8ne180100Ev, symObjAddr: 0x6318, symBinAddr: 0x100009070, symSize: 0x44 }
  - { offsetInCU: 0x186CA, offset: 0x186CA, size: 0x8, addend: 0x0, symName: __ZNSt3__16vectorIiNS_9allocatorIiEEE16__destroy_vectorC1B8ne180100ERS3_, symObjAddr: 0x635C, symBinAddr: 0x1000090B4, symSize: 0x34 }
  - { offsetInCU: 0x18703, offset: 0x18703, size: 0x8, addend: 0x0, symName: __ZNSt3__16vectorIiNS_9allocatorIiEEE16__destroy_vectorclB8ne180100Ev, symObjAddr: 0x6390, symBinAddr: 0x1000090E8, symSize: 0x90 }
  - { offsetInCU: 0x18729, offset: 0x18729, size: 0x8, addend: 0x0, symName: __ZNSt3__16vectorIiNS_9allocatorIiEEE16__destroy_vectorC2B8ne180100ERS3_, symObjAddr: 0x6420, symBinAddr: 0x100009178, symSize: 0x20 }
  - { offsetInCU: 0x18762, offset: 0x18762, size: 0x8, addend: 0x0, symName: __ZNSt3__16vectorIiNS_9allocatorIiEEE7__clearB8ne180100Ev, symObjAddr: 0x6440, symBinAddr: 0x100009198, symSize: 0x28 }
  - { offsetInCU: 0x18788, offset: 0x18788, size: 0x8, addend: 0x0, symName: __ZNKSt3__16vectorIiNS_9allocatorIiEEE17__annotate_deleteB8ne180100Ev, symObjAddr: 0x6468, symBinAddr: 0x1000091C0, symSize: 0x10 }
  - { offsetInCU: 0x187AE, offset: 0x187AE, size: 0x8, addend: 0x0, symName: __ZNSt3__116allocator_traitsINS_9allocatorIiEEE10deallocateB8ne180100ERS2_Pim, symObjAddr: 0x6478, symBinAddr: 0x1000091D0, symSize: 0x34 }
  - { offsetInCU: 0x187F0, offset: 0x187F0, size: 0x8, addend: 0x0, symName: __ZNSt3__16vectorIiNS_9allocatorIiEEE7__allocB8ne180100Ev, symObjAddr: 0x64AC, symBinAddr: 0x100009204, symSize: 0x28 }
  - { offsetInCU: 0x18816, offset: 0x18816, size: 0x8, addend: 0x0, symName: __ZNKSt3__16vectorIiNS_9allocatorIiEEE8capacityB8ne180100Ev, symObjAddr: 0x64D4, symBinAddr: 0x10000922C, symSize: 0x40 }
  - { offsetInCU: 0x1883C, offset: 0x1883C, size: 0x8, addend: 0x0, symName: __ZNSt3__16vectorIiNS_9allocatorIiEEE22__base_destruct_at_endB8ne180100EPi, symObjAddr: 0x6514, symBinAddr: 0x10000926C, symSize: 0x8C }
  - { offsetInCU: 0x18880, offset: 0x18880, size: 0x8, addend: 0x0, symName: __ZNSt3__116allocator_traitsINS_9allocatorIiEEE7destroyB8ne180100IivEEvRS2_PT_, symObjAddr: 0x65A0, symBinAddr: 0x1000092F8, symSize: 0x2C }
  - { offsetInCU: 0x188BD, offset: 0x188BD, size: 0x8, addend: 0x0, symName: __ZNSt3__19allocatorIiE7destroyB8ne180100EPi, symObjAddr: 0x65E0, symBinAddr: 0x100009338, symSize: 0x14 }
  - { offsetInCU: 0x188F1, offset: 0x188F1, size: 0x8, addend: 0x0, symName: __ZNSt3__19allocatorIiE10deallocateB8ne180100EPim, symObjAddr: 0x65F4, symBinAddr: 0x10000934C, symSize: 0x40 }
  - { offsetInCU: 0x18933, offset: 0x18933, size: 0x8, addend: 0x0, symName: __ZNSt3__117__compressed_pairIPiNS_9allocatorIiEEE6secondB8ne180100Ev, symObjAddr: 0x6634, symBinAddr: 0x10000938C, symSize: 0x24 }
  - { offsetInCU: 0x18959, offset: 0x18959, size: 0x8, addend: 0x0, symName: __ZNSt3__122__compressed_pair_elemINS_9allocatorIiEELi1ELb1EE5__getB8ne180100Ev, symObjAddr: 0x6658, symBinAddr: 0x1000093B0, symSize: 0x14 }
  - { offsetInCU: 0x1897F, offset: 0x1897F, size: 0x8, addend: 0x0, symName: __ZNKSt3__16vectorIiNS_9allocatorIiEEE9__end_capB8ne180100Ev, symObjAddr: 0x666C, symBinAddr: 0x1000093C4, symSize: 0x28 }
  - { offsetInCU: 0x189A5, offset: 0x189A5, size: 0x8, addend: 0x0, symName: __ZNKSt3__117__compressed_pairIPiNS_9allocatorIiEEE5firstB8ne180100Ev, symObjAddr: 0x6694, symBinAddr: 0x1000093EC, symSize: 0x24 }
  - { offsetInCU: 0x189CB, offset: 0x189CB, size: 0x8, addend: 0x0, symName: __ZNKSt3__122__compressed_pair_elemIPiLi0ELb0EE5__getB8ne180100Ev, symObjAddr: 0x66B8, symBinAddr: 0x100009410, symSize: 0x14 }
  - { offsetInCU: 0x189F1, offset: 0x189F1, size: 0x8, addend: 0x0, symName: __ZNSt3__112basic_stringIcNS_11char_traitsIcEENS_9allocatorIcEEE15__make_iteratorB8ne180100EPc, symObjAddr: 0x66CC, symBinAddr: 0x100009424, symSize: 0x30 }
  - { offsetInCU: 0x18A26, offset: 0x18A26, size: 0x8, addend: 0x0, symName: __ZNSt3__112basic_stringIcNS_11char_traitsIcEENS_9allocatorIcEEE13__get_pointerB8ne180100Ev, symObjAddr: 0x66FC, symBinAddr: 0x100009454, symSize: 0x54 }
  - { offsetInCU: 0x18A4C, offset: 0x18A4C, size: 0x8, addend: 0x0, symName: __ZNSt3__111__wrap_iterIPcEC1B8ne180100ES1_, symObjAddr: 0x6750, symBinAddr: 0x1000094A8, symSize: 0x34 }
  - { offsetInCU: 0x18A84, offset: 0x18A84, size: 0x8, addend: 0x0, symName: __ZNSt3__111__wrap_iterIPcEC2B8ne180100ES1_, symObjAddr: 0x6784, symBinAddr: 0x1000094DC, symSize: 0x20 }
  - { offsetInCU: 0x18ABC, offset: 0x18ABC, size: 0x8, addend: 0x0, symName: __ZNSt3__16vectorIiNS_9allocatorIiEEE9__end_capB8ne180100Ev, symObjAddr: 0x67A4, symBinAddr: 0x1000094FC, symSize: 0x28 }
  - { offsetInCU: 0x18AE7, offset: 0x18AE7, size: 0x8, addend: 0x0, symName: __ZNSt3__16vectorIiNS_9allocatorIiEEE22__construct_one_at_endB8ne180100IJiEEEvDpOT_, symObjAddr: 0x67CC, symBinAddr: 0x100009524, symSize: 0x90 }
  - { offsetInCU: 0x18B36, offset: 0x18B36, size: 0x8, addend: 0x0, symName: __ZNSt3__16vectorIiNS_9allocatorIiEEE21__push_back_slow_pathIiEEPiOT_, symObjAddr: 0x685C, symBinAddr: 0x1000095B4, symSize: 0xE8 }
  - { offsetInCU: 0x18B93, offset: 0x18B93, size: 0x8, addend: 0x0, symName: __ZNSt3__117__compressed_pairIPiNS_9allocatorIiEEE5firstB8ne180100Ev, symObjAddr: 0x6944, symBinAddr: 0x10000969C, symSize: 0x24 }
  - { offsetInCU: 0x18BB9, offset: 0x18BB9, size: 0x8, addend: 0x0, symName: __ZNSt3__122__compressed_pair_elemIPiLi0ELb0EE5__getB8ne180100Ev, symObjAddr: 0x6968, symBinAddr: 0x1000096C0, symSize: 0x14 }
  - { offsetInCU: 0x18BF8, offset: 0x18BF8, size: 0x8, addend: 0x0, symName: __ZNSt3__16vectorIiNS_9allocatorIiEEE21_ConstructTransactionC1B8ne180100ERS3_m, symObjAddr: 0x697C, symBinAddr: 0x1000096D4, symSize: 0x3C }
  - { offsetInCU: 0x18C40, offset: 0x18C40, size: 0x8, addend: 0x0, symName: __ZNSt3__116allocator_traitsINS_9allocatorIiEEE9constructB8ne180100IiJiEvEEvRS2_PT_DpOT0_, symObjAddr: 0x69B8, symBinAddr: 0x100009710, symSize: 0x34 }
  - { offsetInCU: 0x18C97, offset: 0x18C97, size: 0x8, addend: 0x0, symName: __ZNSt3__16vectorIiNS_9allocatorIiEEE21_ConstructTransactionD1B8ne180100Ev, symObjAddr: 0x69EC, symBinAddr: 0x100009744, symSize: 0x2C }
  - { offsetInCU: 0x18CC1, offset: 0x18CC1, size: 0x8, addend: 0x0, symName: __ZNSt3__16vectorIiNS_9allocatorIiEEE21_ConstructTransactionC2B8ne180100ERS3_m, symObjAddr: 0x6A18, symBinAddr: 0x100009770, symSize: 0x44 }
  - { offsetInCU: 0x18D09, offset: 0x18D09, size: 0x8, addend: 0x0, symName: __ZNSt3__19allocatorIiE9constructB8ne180100IiJiEEEvPT_DpOT0_, symObjAddr: 0x6A5C, symBinAddr: 0x1000097B4, symSize: 0x28 }
  - { offsetInCU: 0x18D5F, offset: 0x18D5F, size: 0x8, addend: 0x0, symName: __ZNSt3__16vectorIiNS_9allocatorIiEEE21_ConstructTransactionD2B8ne180100Ev, symObjAddr: 0x6A84, symBinAddr: 0x1000097DC, symSize: 0x20 }
  - { offsetInCU: 0x18D89, offset: 0x18D89, size: 0x8, addend: 0x0, symName: __ZNKSt3__16vectorIiNS_9allocatorIiEEE11__recommendB8ne180100Em, symObjAddr: 0x6AA4, symBinAddr: 0x1000097FC, symSize: 0xB4 }
  - { offsetInCU: 0x18DDD, offset: 0x18DDD, size: 0x8, addend: 0x0, symName: __ZNSt3__114__split_bufferIiRNS_9allocatorIiEEEC1EmmS3_, symObjAddr: 0x6B58, symBinAddr: 0x1000098B0, symSize: 0x44 }
  - { offsetInCU: 0x18E33, offset: 0x18E33, size: 0x8, addend: 0x0, symName: __ZNSt3__114__split_bufferIiRNS_9allocatorIiEEED1Ev, symObjAddr: 0x6CAC, symBinAddr: 0x100009A04, symSize: 0x2C }
  - { offsetInCU: 0x18E5F, offset: 0x18E5F, size: 0x8, addend: 0x0, symName: __ZNKSt3__16vectorIiNS_9allocatorIiEEE8max_sizeEv, symObjAddr: 0x6CD8, symBinAddr: 0x100009A30, symSize: 0x60 }
  - { offsetInCU: 0x18E86, offset: 0x18E86, size: 0x8, addend: 0x0, symName: __ZNKSt3__16vectorIiNS_9allocatorIiEEE20__throw_length_errorB8ne180100Ev, symObjAddr: 0x6D38, symBinAddr: 0x100009A90, symSize: 0x1C }
  - { offsetInCU: 0x18EB6, offset: 0x18EB6, size: 0x8, addend: 0x0, symName: __ZNSt3__116allocator_traitsINS_9allocatorIiEEE8max_sizeB8ne180100IS2_vEEmRKS2_, symObjAddr: 0x6DAC, symBinAddr: 0x100009B04, symSize: 0x24 }
  - { offsetInCU: 0x18EE4, offset: 0x18EE4, size: 0x8, addend: 0x0, symName: __ZNKSt3__16vectorIiNS_9allocatorIiEEE7__allocB8ne180100Ev, symObjAddr: 0x6DD0, symBinAddr: 0x100009B28, symSize: 0x28 }
  - { offsetInCU: 0x18F0A, offset: 0x18F0A, size: 0x8, addend: 0x0, symName: __ZNSt3__114numeric_limitsIlE3maxB8ne180100Ev, symObjAddr: 0x6DF8, symBinAddr: 0x100009B50, symSize: 0x14 }
  - { offsetInCU: 0x18F28, offset: 0x18F28, size: 0x8, addend: 0x0, symName: __ZNKSt3__16__lessIvvEclB8ne180100ImmEEbRKT_RKT0_, symObjAddr: 0x6E60, symBinAddr: 0x100009BB8, symSize: 0x34 }
  - { offsetInCU: 0x18F7C, offset: 0x18F7C, size: 0x8, addend: 0x0, symName: __ZNKSt3__19allocatorIiE8max_sizeB8ne180100Ev, symObjAddr: 0x6E94, symBinAddr: 0x100009BEC, symSize: 0x14 }
  - { offsetInCU: 0x18FA2, offset: 0x18FA2, size: 0x8, addend: 0x0, symName: __ZNKSt3__117__compressed_pairIPiNS_9allocatorIiEEE6secondB8ne180100Ev, symObjAddr: 0x6EA8, symBinAddr: 0x100009C00, symSize: 0x24 }
  - { offsetInCU: 0x18FC8, offset: 0x18FC8, size: 0x8, addend: 0x0, symName: __ZNKSt3__122__compressed_pair_elemINS_9allocatorIiEELi1ELb1EE5__getB8ne180100Ev, symObjAddr: 0x6ECC, symBinAddr: 0x100009C24, symSize: 0x14 }
  - { offsetInCU: 0x18FEE, offset: 0x18FEE, size: 0x8, addend: 0x0, symName: __ZNSt3__123__libcpp_numeric_limitsIlLb1EE3maxB8ne180100Ev, symObjAddr: 0x6EE0, symBinAddr: 0x100009C38, symSize: 0x8 }
  - { offsetInCU: 0x19002, offset: 0x19002, size: 0x8, addend: 0x0, symName: __ZNSt12length_errorC1B8ne180100EPKc, symObjAddr: 0x6F4C, symBinAddr: 0x100009CA4, symSize: 0x34 }
  - { offsetInCU: 0x1903A, offset: 0x1903A, size: 0x8, addend: 0x0, symName: __ZNSt12length_errorC2B8ne180100EPKc, symObjAddr: 0x6F80, symBinAddr: 0x100009CD8, symSize: 0x4C }
  - { offsetInCU: 0x19072, offset: 0x19072, size: 0x8, addend: 0x0, symName: __ZNSt3__114__split_bufferIiRNS_9allocatorIiEEEC2EmmS3_, symObjAddr: 0x7020, symBinAddr: 0x100009D78, symSize: 0xD4 }
  - { offsetInCU: 0x190E5, offset: 0x190E5, size: 0x8, addend: 0x0, symName: __ZNSt3__117__compressed_pairIPiRNS_9allocatorIiEEEC1B8ne180100IDnS4_EEOT_OT0_, symObjAddr: 0x70F4, symBinAddr: 0x100009E4C, symSize: 0x3C }
  - { offsetInCU: 0x1913D, offset: 0x1913D, size: 0x8, addend: 0x0, symName: __ZNSt3__114__split_bufferIiRNS_9allocatorIiEEE7__allocB8ne180100Ev, symObjAddr: 0x7170, symBinAddr: 0x100009EC8, symSize: 0x28 }
  - { offsetInCU: 0x19163, offset: 0x19163, size: 0x8, addend: 0x0, symName: __ZNSt3__114__split_bufferIiRNS_9allocatorIiEEE9__end_capB8ne180100Ev, symObjAddr: 0x7198, symBinAddr: 0x100009EF0, symSize: 0x28 }
  - { offsetInCU: 0x19189, offset: 0x19189, size: 0x8, addend: 0x0, symName: __ZNSt3__117__compressed_pairIPiRNS_9allocatorIiEEEC2B8ne180100IDnS4_EEOT_OT0_, symObjAddr: 0x71C0, symBinAddr: 0x100009F18, symSize: 0x48 }
  - { offsetInCU: 0x191E1, offset: 0x191E1, size: 0x8, addend: 0x0, symName: __ZNSt3__122__compressed_pair_elemIRNS_9allocatorIiEELi1ELb0EEC2B8ne180100IS3_vEEOT_, symObjAddr: 0x7208, symBinAddr: 0x100009F60, symSize: 0x20 }
  - { offsetInCU: 0x19223, offset: 0x19223, size: 0x8, addend: 0x0, symName: __ZNSt3__19allocatorIiE8allocateB8ne180100Em, symObjAddr: 0x7228, symBinAddr: 0x100009F80, symSize: 0x58 }
  - { offsetInCU: 0x19257, offset: 0x19257, size: 0x8, addend: 0x0, symName: __ZNSt3__117__compressed_pairIPiRNS_9allocatorIiEEE6secondB8ne180100Ev, symObjAddr: 0x7300, symBinAddr: 0x10000A058, symSize: 0x28 }
  - { offsetInCU: 0x1927D, offset: 0x1927D, size: 0x8, addend: 0x0, symName: __ZNSt3__122__compressed_pair_elemIRNS_9allocatorIiEELi1ELb0EE5__getB8ne180100Ev, symObjAddr: 0x7328, symBinAddr: 0x10000A080, symSize: 0x18 }
  - { offsetInCU: 0x192A3, offset: 0x192A3, size: 0x8, addend: 0x0, symName: __ZNSt3__117__compressed_pairIPiRNS_9allocatorIiEEE5firstB8ne180100Ev, symObjAddr: 0x7340, symBinAddr: 0x10000A098, symSize: 0x24 }
  - { offsetInCU: 0x192C9, offset: 0x192C9, size: 0x8, addend: 0x0, symName: __ZNSt3__116reverse_iteratorIPiEC1B8ne180100ES1_, symObjAddr: 0x73DC, symBinAddr: 0x10000A134, symSize: 0x34 }
  - { offsetInCU: 0x19301, offset: 0x19301, size: 0x8, addend: 0x0, symName: __ZNKSt3__116reverse_iteratorIPiE4baseB8ne180100Ev, symObjAddr: 0x7410, symBinAddr: 0x10000A168, symSize: 0x18 }
  - { offsetInCU: 0x19327, offset: 0x19327, size: 0x8, addend: 0x0, symName: __ZNKSt3__16vectorIiNS_9allocatorIiEEE14__annotate_newB8ne180100Em, symObjAddr: 0x7464, symBinAddr: 0x10000A1BC, symSize: 0x14 }
  - { offsetInCU: 0x1937F, offset: 0x1937F, size: 0x8, addend: 0x0, symName: __ZNKSt3__111__move_loopINS_17_ClassicAlgPolicyEEclB8ne180100INS_16reverse_iteratorIPiEES6_S6_EENS_4pairIT_T1_EES8_T0_S9_, symObjAddr: 0x7768, symBinAddr: 0x10000A4C0, symSize: 0xA0 }
  - { offsetInCU: 0x193EF, offset: 0x193EF, size: 0x8, addend: 0x0, symName: __ZNSt3__18_IterOpsINS_17_ClassicAlgPolicyEE11__iter_moveB8ne180100IRNS_16reverse_iteratorIPiEELi0EEEDTclsr3stdE4movedeclsr3stdE7declvalIRT_EEEEOS8_, symObjAddr: 0x799C, symBinAddr: 0x10000A6F4, symSize: 0x28 }
  - { offsetInCU: 0x19421, offset: 0x19421, size: 0x8, addend: 0x0, symName: __ZNKSt3__116reverse_iteratorIPiEdeB8ne180100Ev, symObjAddr: 0x79C4, symBinAddr: 0x10000A71C, symSize: 0x28 }
  - { offsetInCU: 0x19455, offset: 0x19455, size: 0x8, addend: 0x0, symName: __ZNSt3__116reverse_iteratorIPiEppB8ne180100Ev, symObjAddr: 0x79EC, symBinAddr: 0x10000A744, symSize: 0x20 }
  - { offsetInCU: 0x1947B, offset: 0x1947B, size: 0x8, addend: 0x0, symName: __ZNSt3__18_IterOpsINS_17_ClassicAlgPolicyEE25__validate_iter_referenceB8ne180100IRNS_16reverse_iteratorIPiEEEEvv, symObjAddr: 0x7A0C, symBinAddr: 0x10000A764, symSize: 0x4 }
  - { offsetInCU: 0x19499, offset: 0x19499, size: 0x8, addend: 0x0, symName: __ZNSt3__118__unwrap_iter_implINS_16reverse_iteratorIPiEELb0EE8__unwrapB8ne180100ES3_, symObjAddr: 0x7A10, symBinAddr: 0x10000A768, symSize: 0x24 }
  - { offsetInCU: 0x194C1, offset: 0x194C1, size: 0x8, addend: 0x0, symName: __ZNSt3__14pairINS_16reverse_iteratorIPiEES3_EC1B8ne180100IS3_S3_Li0EEEOT_OT0_, symObjAddr: 0x7A34, symBinAddr: 0x10000A78C, symSize: 0x3C }
  - { offsetInCU: 0x1951F, offset: 0x1951F, size: 0x8, addend: 0x0, symName: __ZNSt3__14pairINS_16reverse_iteratorIPiEES3_EC2B8ne180100IS3_S3_Li0EEEOT_OT0_, symObjAddr: 0x7A70, symBinAddr: 0x10000A7C8, symSize: 0x34 }
  - { offsetInCU: 0x1957D, offset: 0x1957D, size: 0x8, addend: 0x0, symName: __ZNSt3__118__unwrap_iter_implINS_16reverse_iteratorIPiEELb0EE8__rewrapB8ne180100ES3_S3_, symObjAddr: 0x7AA4, symBinAddr: 0x10000A7FC, symSize: 0x2C }
  - { offsetInCU: 0x195AA, offset: 0x195AA, size: 0x8, addend: 0x0, symName: __ZNSt3__116reverse_iteratorIPiEC2B8ne180100ES1_, symObjAddr: 0x7AD0, symBinAddr: 0x10000A828, symSize: 0x28 }
  - { offsetInCU: 0x195E2, offset: 0x195E2, size: 0x8, addend: 0x0, symName: __ZNSt3__114__split_bufferIiRNS_9allocatorIiEEED2Ev, symObjAddr: 0x7AF8, symBinAddr: 0x10000A850, symSize: 0x8C }
  - { offsetInCU: 0x1960E, offset: 0x1960E, size: 0x8, addend: 0x0, symName: __ZNSt3__114__split_bufferIiRNS_9allocatorIiEEE5clearB8ne180100Ev, symObjAddr: 0x7B84, symBinAddr: 0x10000A8DC, symSize: 0x28 }
  - { offsetInCU: 0x19634, offset: 0x19634, size: 0x8, addend: 0x0, symName: __ZNKSt3__114__split_bufferIiRNS_9allocatorIiEEE8capacityB8ne180100Ev, symObjAddr: 0x7BAC, symBinAddr: 0x10000A904, symSize: 0x40 }
  - { offsetInCU: 0x1965A, offset: 0x1965A, size: 0x8, addend: 0x0, symName: __ZNSt3__114__split_bufferIiRNS_9allocatorIiEEE17__destruct_at_endB8ne180100EPi, symObjAddr: 0x7BEC, symBinAddr: 0x10000A944, symSize: 0x2C }
  - { offsetInCU: 0x1968E, offset: 0x1968E, size: 0x8, addend: 0x0, symName: __ZNSt3__114__split_bufferIiRNS_9allocatorIiEEE17__destruct_at_endB8ne180100EPiNS_17integral_constantIbLb0EEE, symObjAddr: 0x7C18, symBinAddr: 0x10000A970, symSize: 0x80 }
  - { offsetInCU: 0x196CD, offset: 0x196CD, size: 0x8, addend: 0x0, symName: __ZNKSt3__114__split_bufferIiRNS_9allocatorIiEEE9__end_capB8ne180100Ev, symObjAddr: 0x7C98, symBinAddr: 0x10000A9F0, symSize: 0x28 }
  - { offsetInCU: 0x196F3, offset: 0x196F3, size: 0x8, addend: 0x0, symName: __ZNKSt3__117__compressed_pairIPiRNS_9allocatorIiEEE5firstB8ne180100Ev, symObjAddr: 0x7CC0, symBinAddr: 0x10000AA18, symSize: 0x24 }
  - { offsetInCU: 0x19719, offset: 0x19719, size: 0x8, addend: 0x0, symName: __ZNSt3__16vectorINS0_IiNS_9allocatorIiEEEENS1_IS3_EEE9__end_capB8ne180100Ev, symObjAddr: 0x7CE4, symBinAddr: 0x10000AA3C, symSize: 0x28 }
  - { offsetInCU: 0x1973F, offset: 0x1973F, size: 0x8, addend: 0x0, symName: __ZNSt3__16vectorINS0_IiNS_9allocatorIiEEEENS1_IS3_EEE22__construct_one_at_endB8ne180100IJRKS3_EEEvDpOT_, symObjAddr: 0x7D0C, symBinAddr: 0x10000AA64, symSize: 0x90 }
  - { offsetInCU: 0x1978E, offset: 0x1978E, size: 0x8, addend: 0x0, symName: __ZNSt3__16vectorINS0_IiNS_9allocatorIiEEEENS1_IS3_EEE21__push_back_slow_pathIRKS3_EEPS3_OT_, symObjAddr: 0x7D9C, symBinAddr: 0x10000AAF4, symSize: 0xE8 }
  - { offsetInCU: 0x197EB, offset: 0x197EB, size: 0x8, addend: 0x0, symName: __ZNSt3__117__compressed_pairIPNS_6vectorIiNS_9allocatorIiEEEENS2_IS4_EEE5firstB8ne180100Ev, symObjAddr: 0x7E84, symBinAddr: 0x10000ABDC, symSize: 0x24 }
  - { offsetInCU: 0x19811, offset: 0x19811, size: 0x8, addend: 0x0, symName: __ZNSt3__122__compressed_pair_elemIPNS_6vectorIiNS_9allocatorIiEEEELi0ELb0EE5__getB8ne180100Ev, symObjAddr: 0x7EA8, symBinAddr: 0x10000AC00, symSize: 0x14 }
  - { offsetInCU: 0x19850, offset: 0x19850, size: 0x8, addend: 0x0, symName: __ZNSt3__16vectorINS0_IiNS_9allocatorIiEEEENS1_IS3_EEE21_ConstructTransactionC1B8ne180100ERS5_m, symObjAddr: 0x7EBC, symBinAddr: 0x10000AC14, symSize: 0x3C }
  - { offsetInCU: 0x19898, offset: 0x19898, size: 0x8, addend: 0x0, symName: __ZNSt3__116allocator_traitsINS_9allocatorINS_6vectorIiNS1_IiEEEEEEE9constructB8ne180100IS4_JRKS4_EvEEvRS5_PT_DpOT0_, symObjAddr: 0x7EF8, symBinAddr: 0x10000AC50, symSize: 0x34 }
  - { offsetInCU: 0x198EF, offset: 0x198EF, size: 0x8, addend: 0x0, symName: __ZNSt3__16vectorINS0_IiNS_9allocatorIiEEEENS1_IS3_EEE21_ConstructTransactionD1B8ne180100Ev, symObjAddr: 0x7F2C, symBinAddr: 0x10000AC84, symSize: 0x2C }
  - { offsetInCU: 0x19919, offset: 0x19919, size: 0x8, addend: 0x0, symName: __ZNSt3__16vectorINS0_IiNS_9allocatorIiEEEENS1_IS3_EEE21_ConstructTransactionC2B8ne180100ERS5_m, symObjAddr: 0x7F58, symBinAddr: 0x10000ACB0, symSize: 0x4C }
  - { offsetInCU: 0x19961, offset: 0x19961, size: 0x8, addend: 0x0, symName: __ZNSt3__19allocatorINS_6vectorIiNS0_IiEEEEE9constructB8ne180100IS3_JRKS3_EEEvPT_DpOT0_, symObjAddr: 0x7FA4, symBinAddr: 0x10000ACFC, symSize: 0x30 }
  - { offsetInCU: 0x199B7, offset: 0x199B7, size: 0x8, addend: 0x0, symName: __ZNSt3__16vectorIiNS_9allocatorIiEEEC1ERKS3_, symObjAddr: 0x7FD4, symBinAddr: 0x10000AD2C, symSize: 0x34 }
  - { offsetInCU: 0x199F2, offset: 0x199F2, size: 0x8, addend: 0x0, symName: __ZNSt3__16vectorIiNS_9allocatorIiEEEC2ERKS3_, symObjAddr: 0x8008, symBinAddr: 0x10000AD60, symSize: 0x94 }
  - { offsetInCU: 0x19A2D, offset: 0x19A2D, size: 0x8, addend: 0x0, symName: __ZNSt3__116allocator_traitsINS_9allocatorIiEEE37select_on_container_copy_constructionB8ne180100IS2_vvEES2_RKS2_, symObjAddr: 0x809C, symBinAddr: 0x10000ADF4, symSize: 0x10 }
  - { offsetInCU: 0x19A61, offset: 0x19A61, size: 0x8, addend: 0x0, symName: __ZNSt3__117__compressed_pairIPiNS_9allocatorIiEEEC1B8ne180100IDnS3_EEOT_OT0_, symObjAddr: 0x80AC, symBinAddr: 0x10000AE04, symSize: 0x3C }
  - { offsetInCU: 0x19AB9, offset: 0x19AB9, size: 0x8, addend: 0x0, symName: __ZNSt3__16vectorIiNS_9allocatorIiEEE16__init_with_sizeB8ne180100IPiS5_EEvT_T0_m, symObjAddr: 0x80E8, symBinAddr: 0x10000AE40, symSize: 0xB8 }
  - { offsetInCU: 0x19B2D, offset: 0x19B2D, size: 0x8, addend: 0x0, symName: __ZNSt3__117__compressed_pairIPiNS_9allocatorIiEEEC2B8ne180100IDnS3_EEOT_OT0_, symObjAddr: 0x81A0, symBinAddr: 0x10000AEF8, symSize: 0x44 }
  - { offsetInCU: 0x19B85, offset: 0x19B85, size: 0x8, addend: 0x0, symName: __ZNSt3__122__compressed_pair_elemINS_9allocatorIiEELi1ELb1EEC2B8ne180100IS2_vEEOT_, symObjAddr: 0x81E4, symBinAddr: 0x10000AF3C, symSize: 0x18 }
  - { offsetInCU: 0x19BC7, offset: 0x19BC7, size: 0x8, addend: 0x0, symName: __ZNSt3__16vectorIiNS_9allocatorIiEEE11__vallocateB8ne180100Em, symObjAddr: 0x823C, symBinAddr: 0x10000AF94, symSize: 0xAC }
  - { offsetInCU: 0x19C0B, offset: 0x19C0B, size: 0x8, addend: 0x0, symName: __ZNSt3__16vectorIiNS_9allocatorIiEEE18__construct_at_endIPiS5_EEvT_T0_m, symObjAddr: 0x82E8, symBinAddr: 0x10000B040, symSize: 0x8C }
  - { offsetInCU: 0x19C80, offset: 0x19C80, size: 0x8, addend: 0x0, symName: __ZNSt3__128__exception_guard_exceptionsINS_6vectorIiNS_9allocatorIiEEE16__destroy_vectorEE10__completeB8ne180100Ev, symObjAddr: 0x8374, symBinAddr: 0x10000B0CC, symSize: 0x1C }
  - { offsetInCU: 0x19CA6, offset: 0x19CA6, size: 0x8, addend: 0x0, symName: __ZNSt3__128__exception_guard_exceptionsINS_6vectorIiNS_9allocatorIiEEE16__destroy_vectorEED1B8ne180100Ev, symObjAddr: 0x8390, symBinAddr: 0x10000B0E8, symSize: 0x2C }
  - { offsetInCU: 0x19CD0, offset: 0x19CD0, size: 0x8, addend: 0x0, symName: __ZNSt3__128__exception_guard_exceptionsINS_6vectorIiNS_9allocatorIiEEE16__destroy_vectorEEC1B8ne180100ES5_, symObjAddr: 0x83BC, symBinAddr: 0x10000B114, symSize: 0x34 }
  - { offsetInCU: 0x19D08, offset: 0x19D08, size: 0x8, addend: 0x0, symName: __ZNSt3__128__exception_guard_exceptionsINS_6vectorIiNS_9allocatorIiEEE16__destroy_vectorEEC2B8ne180100ES5_, symObjAddr: 0x83F0, symBinAddr: 0x10000B148, symSize: 0x24 }
  - { offsetInCU: 0x19D5E, offset: 0x19D5E, size: 0x8, addend: 0x0, symName: __ZNSt3__14pairIPiS1_EC1B8ne180100IS1_S1_Li0EEEOT_OT0_, symObjAddr: 0x85C4, symBinAddr: 0x10000B31C, symSize: 0x3C }
  - { offsetInCU: 0x19DBC, offset: 0x19DBC, size: 0x8, addend: 0x0, symName: __ZNSt3__14pairIPiS1_EC2B8ne180100IS1_S1_Li0EEEOT_OT0_, symObjAddr: 0x8600, symBinAddr: 0x10000B358, symSize: 0x34 }
  - { offsetInCU: 0x19E24, offset: 0x19E24, size: 0x8, addend: 0x0, symName: __ZNKSt3__114__copy_trivialclB8ne180100IiiLi0EEENS_4pairIPT_PT0_EES4_S4_S6_, symObjAddr: 0x87B0, symBinAddr: 0x10000B508, symSize: 0x48 }
  - { offsetInCU: 0x19E8C, offset: 0x19E8C, size: 0x8, addend: 0x0, symName: __ZNSt3__14pairIPiS1_EC1B8ne180100IRS1_S1_Li0EEEOT_OT0_, symObjAddr: 0x8940, symBinAddr: 0x10000B698, symSize: 0x3C }
  - { offsetInCU: 0x19EEA, offset: 0x19EEA, size: 0x8, addend: 0x0, symName: __ZNSt3__14pairIPiS1_EC2B8ne180100IRS1_S1_Li0EEEOT_OT0_, symObjAddr: 0x897C, symBinAddr: 0x10000B6D4, symSize: 0x34 }
  - { offsetInCU: 0x19F48, offset: 0x19F48, size: 0x8, addend: 0x0, symName: __ZNSt3__118__unwrap_iter_implIPiLb1EE8__unwrapB8ne180100ES1_, symObjAddr: 0x89B0, symBinAddr: 0x10000B708, symSize: 0x24 }
  - { offsetInCU: 0x19F6B, offset: 0x19F6B, size: 0x8, addend: 0x0, symName: __ZNSt3__118__unwrap_iter_implIPiLb1EE8__rewrapB8ne180100ES1_S1_, symObjAddr: 0x89D4, symBinAddr: 0x10000B72C, symSize: 0x50 }
  - { offsetInCU: 0x19F9C, offset: 0x19F9C, size: 0x8, addend: 0x0, symName: __ZNSt3__128__exception_guard_exceptionsINS_6vectorIiNS_9allocatorIiEEE16__destroy_vectorEED2B8ne180100Ev, symObjAddr: 0x8A24, symBinAddr: 0x10000B77C, symSize: 0x48 }
  - { offsetInCU: 0x19FC6, offset: 0x19FC6, size: 0x8, addend: 0x0, symName: __ZNSt3__16vectorINS0_IiNS_9allocatorIiEEEENS1_IS3_EEE21_ConstructTransactionD2B8ne180100Ev, symObjAddr: 0x8A6C, symBinAddr: 0x10000B7C4, symSize: 0x20 }
  - { offsetInCU: 0x19FF0, offset: 0x19FF0, size: 0x8, addend: 0x0, symName: __ZNKSt3__16vectorINS0_IiNS_9allocatorIiEEEENS1_IS3_EEE11__recommendB8ne180100Em, symObjAddr: 0x8A8C, symBinAddr: 0x10000B7E4, symSize: 0xB4 }
  - { offsetInCU: 0x1A044, offset: 0x1A044, size: 0x8, addend: 0x0, symName: __ZNSt3__114__split_bufferINS_6vectorIiNS_9allocatorIiEEEERNS2_IS4_EEEC1EmmS6_, symObjAddr: 0x8B40, symBinAddr: 0x10000B898, symSize: 0x44 }
  - { offsetInCU: 0x1A09A, offset: 0x1A09A, size: 0x8, addend: 0x0, symName: __ZNSt3__114__split_bufferINS_6vectorIiNS_9allocatorIiEEEERNS2_IS4_EEED1Ev, symObjAddr: 0x8C94, symBinAddr: 0x10000B9EC, symSize: 0x2C }
  - { offsetInCU: 0x1A0C6, offset: 0x1A0C6, size: 0x8, addend: 0x0, symName: __ZNKSt3__16vectorINS0_IiNS_9allocatorIiEEEENS1_IS3_EEE8max_sizeEv, symObjAddr: 0x8CC0, symBinAddr: 0x10000BA18, symSize: 0x60 }
  - { offsetInCU: 0x1A0ED, offset: 0x1A0ED, size: 0x8, addend: 0x0, symName: __ZNKSt3__16vectorINS0_IiNS_9allocatorIiEEEENS1_IS3_EEE20__throw_length_errorB8ne180100Ev, symObjAddr: 0x8D20, symBinAddr: 0x10000BA78, symSize: 0x1C }
  - { offsetInCU: 0x1A11D, offset: 0x1A11D, size: 0x8, addend: 0x0, symName: __ZNSt3__116allocator_traitsINS_9allocatorINS_6vectorIiNS1_IiEEEEEEE8max_sizeB8ne180100IS5_vEEmRKS5_, symObjAddr: 0x8D3C, symBinAddr: 0x10000BA94, symSize: 0x24 }
  - { offsetInCU: 0x1A14B, offset: 0x1A14B, size: 0x8, addend: 0x0, symName: __ZNKSt3__16vectorINS0_IiNS_9allocatorIiEEEENS1_IS3_EEE7__allocB8ne180100Ev, symObjAddr: 0x8D60, symBinAddr: 0x10000BAB8, symSize: 0x28 }
  - { offsetInCU: 0x1A171, offset: 0x1A171, size: 0x8, addend: 0x0, symName: __ZNKSt3__19allocatorINS_6vectorIiNS0_IiEEEEE8max_sizeB8ne180100Ev, symObjAddr: 0x8D88, symBinAddr: 0x10000BAE0, symSize: 0x18 }
  - { offsetInCU: 0x1A197, offset: 0x1A197, size: 0x8, addend: 0x0, symName: __ZNKSt3__117__compressed_pairIPNS_6vectorIiNS_9allocatorIiEEEENS2_IS4_EEE6secondB8ne180100Ev, symObjAddr: 0x8DA0, symBinAddr: 0x10000BAF8, symSize: 0x24 }
  - { offsetInCU: 0x1A1BD, offset: 0x1A1BD, size: 0x8, addend: 0x0, symName: __ZNKSt3__122__compressed_pair_elemINS_9allocatorINS_6vectorIiNS1_IiEEEEEELi1ELb1EE5__getB8ne180100Ev, symObjAddr: 0x8DC4, symBinAddr: 0x10000BB1C, symSize: 0x14 }
  - { offsetInCU: 0x1A1E3, offset: 0x1A1E3, size: 0x8, addend: 0x0, symName: __ZNSt3__114__split_bufferINS_6vectorIiNS_9allocatorIiEEEERNS2_IS4_EEEC2EmmS6_, symObjAddr: 0x8DD8, symBinAddr: 0x10000BB30, symSize: 0xE0 }
  - { offsetInCU: 0x1A256, offset: 0x1A256, size: 0x8, addend: 0x0, symName: __ZNSt3__117__compressed_pairIPNS_6vectorIiNS_9allocatorIiEEEERNS2_IS4_EEEC1B8ne180100IDnS7_EEOT_OT0_, symObjAddr: 0x8EB8, symBinAddr: 0x10000BC10, symSize: 0x3C }
  - { offsetInCU: 0x1A2AE, offset: 0x1A2AE, size: 0x8, addend: 0x0, symName: __ZNSt3__114__split_bufferINS_6vectorIiNS_9allocatorIiEEEERNS2_IS4_EEE7__allocB8ne180100Ev, symObjAddr: 0x8F34, symBinAddr: 0x10000BC8C, symSize: 0x28 }
  - { offsetInCU: 0x1A2D4, offset: 0x1A2D4, size: 0x8, addend: 0x0, symName: __ZNSt3__114__split_bufferINS_6vectorIiNS_9allocatorIiEEEERNS2_IS4_EEE9__end_capB8ne180100Ev, symObjAddr: 0x8F5C, symBinAddr: 0x10000BCB4, symSize: 0x28 }
  - { offsetInCU: 0x1A2FA, offset: 0x1A2FA, size: 0x8, addend: 0x0, symName: __ZNSt3__117__compressed_pairIPNS_6vectorIiNS_9allocatorIiEEEERNS2_IS4_EEEC2B8ne180100IDnS7_EEOT_OT0_, symObjAddr: 0x8F84, symBinAddr: 0x10000BCDC, symSize: 0x48 }
  - { offsetInCU: 0x1A352, offset: 0x1A352, size: 0x8, addend: 0x0, symName: __ZNSt3__122__compressed_pair_elemIRNS_9allocatorINS_6vectorIiNS1_IiEEEEEELi1ELb0EEC2B8ne180100IS6_vEEOT_, symObjAddr: 0x8FCC, symBinAddr: 0x10000BD24, symSize: 0x20 }
  - { offsetInCU: 0x1A394, offset: 0x1A394, size: 0x8, addend: 0x0, symName: __ZNSt3__19allocatorINS_6vectorIiNS0_IiEEEEE8allocateB8ne180100Em, symObjAddr: 0x8FEC, symBinAddr: 0x10000BD44, symSize: 0x5C }
  - { offsetInCU: 0x1A3C8, offset: 0x1A3C8, size: 0x8, addend: 0x0, symName: __ZNSt3__117__compressed_pairIPNS_6vectorIiNS_9allocatorIiEEEERNS2_IS4_EEE6secondB8ne180100Ev, symObjAddr: 0x9048, symBinAddr: 0x10000BDA0, symSize: 0x28 }
  - { offsetInCU: 0x1A3EE, offset: 0x1A3EE, size: 0x8, addend: 0x0, symName: __ZNSt3__122__compressed_pair_elemIRNS_9allocatorINS_6vectorIiNS1_IiEEEEEELi1ELb0EE5__getB8ne180100Ev, symObjAddr: 0x9070, symBinAddr: 0x10000BDC8, symSize: 0x18 }
  - { offsetInCU: 0x1A414, offset: 0x1A414, size: 0x8, addend: 0x0, symName: __ZNSt3__117__compressed_pairIPNS_6vectorIiNS_9allocatorIiEEEERNS2_IS4_EEE5firstB8ne180100Ev, symObjAddr: 0x9088, symBinAddr: 0x10000BDE0, symSize: 0x24 }
  - { offsetInCU: 0x1A43A, offset: 0x1A43A, size: 0x8, addend: 0x0, symName: __ZNSt3__116reverse_iteratorIPNS_6vectorIiNS_9allocatorIiEEEEEC1B8ne180100ES5_, symObjAddr: 0x91D8, symBinAddr: 0x10000BF30, symSize: 0x34 }
  - { offsetInCU: 0x1A472, offset: 0x1A472, size: 0x8, addend: 0x0, symName: __ZNKSt3__116reverse_iteratorIPNS_6vectorIiNS_9allocatorIiEEEEE4baseB8ne180100Ev, symObjAddr: 0x920C, symBinAddr: 0x10000BF64, symSize: 0x18 }
  - { offsetInCU: 0x1A498, offset: 0x1A498, size: 0x8, addend: 0x0, symName: __ZNKSt3__16vectorINS0_IiNS_9allocatorIiEEEENS1_IS3_EEE14__annotate_newB8ne180100Em, symObjAddr: 0x9260, symBinAddr: 0x10000BFB8, symSize: 0x14 }
  - { offsetInCU: 0x1A4CD, offset: 0x1A4CD, size: 0x8, addend: 0x0, symName: __ZNSt3__129_AllocatorDestroyRangeReverseINS_9allocatorINS_6vectorIiNS1_IiEEEEEENS_16reverse_iteratorIPS4_EEEC1B8ne180100ERS5_RS8_SB_, symObjAddr: 0x92C0, symBinAddr: 0x10000C018, symSize: 0x44 }
  - { offsetInCU: 0x1A524, offset: 0x1A524, size: 0x8, addend: 0x0, symName: __ZNSt3__116allocator_traitsINS_9allocatorINS_6vectorIiNS1_IiEEEEEEE9constructB8ne180100IS4_JS4_EvEEvRS5_PT_DpOT0_, symObjAddr: 0x934C, symBinAddr: 0x10000C0A4, symSize: 0x34 }
  - { offsetInCU: 0x1A57B, offset: 0x1A57B, size: 0x8, addend: 0x0, symName: __ZNKSt3__116reverse_iteratorIPNS_6vectorIiNS_9allocatorIiEEEEEdeB8ne180100Ev, symObjAddr: 0x93A4, symBinAddr: 0x10000C0FC, symSize: 0x28 }
  - { offsetInCU: 0x1A5AF, offset: 0x1A5AF, size: 0x8, addend: 0x0, symName: __ZNSt3__116reverse_iteratorIPNS_6vectorIiNS_9allocatorIiEEEEEppB8ne180100Ev, symObjAddr: 0x93CC, symBinAddr: 0x10000C124, symSize: 0x20 }
  - { offsetInCU: 0x1A5D5, offset: 0x1A5D5, size: 0x8, addend: 0x0, symName: __ZNSt3__128__exception_guard_exceptionsINS_29_AllocatorDestroyRangeReverseINS_9allocatorINS_6vectorIiNS2_IiEEEEEENS_16reverse_iteratorIPS5_EEEEE10__completeB8ne180100Ev, symObjAddr: 0x93EC, symBinAddr: 0x10000C144, symSize: 0x1C }
  - { offsetInCU: 0x1A5FB, offset: 0x1A5FB, size: 0x8, addend: 0x0, symName: __ZNSt3__128__exception_guard_exceptionsINS_29_AllocatorDestroyRangeReverseINS_9allocatorINS_6vectorIiNS2_IiEEEEEENS_16reverse_iteratorIPS5_EEEEED1B8ne180100Ev, symObjAddr: 0x9408, symBinAddr: 0x10000C160, symSize: 0x2C }
  - { offsetInCU: 0x1A625, offset: 0x1A625, size: 0x8, addend: 0x0, symName: __ZNSt3__128__exception_guard_exceptionsINS_29_AllocatorDestroyRangeReverseINS_9allocatorINS_6vectorIiNS2_IiEEEEEENS_16reverse_iteratorIPS5_EEEEEC1B8ne180100ESA_, symObjAddr: 0x9434, symBinAddr: 0x10000C18C, symSize: 0x34 }
  - { offsetInCU: 0x1A65E, offset: 0x1A65E, size: 0x8, addend: 0x0, symName: __ZNSt3__128__exception_guard_exceptionsINS_29_AllocatorDestroyRangeReverseINS_9allocatorINS_6vectorIiNS2_IiEEEEEENS_16reverse_iteratorIPS5_EEEEEC2B8ne180100ESA_, symObjAddr: 0x9468, symBinAddr: 0x10000C1C0, symSize: 0x30 }
  - { offsetInCU: 0x1A697, offset: 0x1A697, size: 0x8, addend: 0x0, symName: __ZNSt3__129_AllocatorDestroyRangeReverseINS_9allocatorINS_6vectorIiNS1_IiEEEEEENS_16reverse_iteratorIPS4_EEEC2B8ne180100ERS5_RS8_SB_, symObjAddr: 0x9498, symBinAddr: 0x10000C1F0, symSize: 0x38 }
  - { offsetInCU: 0x1A6EE, offset: 0x1A6EE, size: 0x8, addend: 0x0, symName: __ZNSt3__19allocatorINS_6vectorIiNS0_IiEEEEE9constructB8ne180100IS3_JS3_EEEvPT_DpOT0_, symObjAddr: 0x94D0, symBinAddr: 0x10000C228, symSize: 0x30 }
  - { offsetInCU: 0x1A744, offset: 0x1A744, size: 0x8, addend: 0x0, symName: __ZNSt3__16vectorIiNS_9allocatorIiEEEC1B8ne180100EOS3_, symObjAddr: 0x9500, symBinAddr: 0x10000C258, symSize: 0x34 }
  - { offsetInCU: 0x1A77F, offset: 0x1A77F, size: 0x8, addend: 0x0, symName: __ZNSt3__16vectorIiNS_9allocatorIiEEEC2B8ne180100EOS3_, symObjAddr: 0x9534, symBinAddr: 0x10000C28C, symSize: 0xC4 }
  - { offsetInCU: 0x1A7BF, offset: 0x1A7BF, size: 0x8, addend: 0x0, symName: __ZNSt3__119__to_address_helperINS_16reverse_iteratorIPNS_6vectorIiNS_9allocatorIiEEEEEEvE6__callB8ne180100ERKS7_, symObjAddr: 0x95F8, symBinAddr: 0x10000C350, symSize: 0x38 }
  - { offsetInCU: 0x1A7E2, offset: 0x1A7E2, size: 0x8, addend: 0x0, symName: __ZNKSt3__116reverse_iteratorIPNS_6vectorIiNS_9allocatorIiEEEEEptB8ne180100Ev, symObjAddr: 0x9630, symBinAddr: 0x10000C388, symSize: 0x24 }
  - { offsetInCU: 0x1A808, offset: 0x1A808, size: 0x8, addend: 0x0, symName: __ZNSt3__128__exception_guard_exceptionsINS_29_AllocatorDestroyRangeReverseINS_9allocatorINS_6vectorIiNS2_IiEEEEEENS_16reverse_iteratorIPS5_EEEEED2B8ne180100Ev, symObjAddr: 0x9654, symBinAddr: 0x10000C3AC, symSize: 0x50 }
  - { offsetInCU: 0x1A832, offset: 0x1A832, size: 0x8, addend: 0x0, symName: __ZNKSt3__129_AllocatorDestroyRangeReverseINS_9allocatorINS_6vectorIiNS1_IiEEEEEENS_16reverse_iteratorIPS4_EEEclB8ne180100Ev, symObjAddr: 0x96A4, symBinAddr: 0x10000C3FC, symSize: 0xB4 }
  - { offsetInCU: 0x1A859, offset: 0x1A859, size: 0x8, addend: 0x0, symName: __ZNSt3__116reverse_iteratorINS0_IPNS_6vectorIiNS_9allocatorIiEEEEEEEC1B8ne180100ES6_, symObjAddr: 0x97C8, symBinAddr: 0x10000C520, symSize: 0x3C }
  - { offsetInCU: 0x1A891, offset: 0x1A891, size: 0x8, addend: 0x0, symName: __ZNSt3__116reverse_iteratorINS0_IPNS_6vectorIiNS_9allocatorIiEEEEEEEppB8ne180100Ev, symObjAddr: 0x9888, symBinAddr: 0x10000C5E0, symSize: 0x30 }
  - { offsetInCU: 0x1A8B7, offset: 0x1A8B7, size: 0x8, addend: 0x0, symName: __ZNKSt3__116reverse_iteratorINS0_IPNS_6vectorIiNS_9allocatorIiEEEEEEE4baseB8ne180100Ev, symObjAddr: 0x98B8, symBinAddr: 0x10000C610, symSize: 0x24 }
  - { offsetInCU: 0x1A8E2, offset: 0x1A8E2, size: 0x8, addend: 0x0, symName: __ZNSt3__119__to_address_helperINS_16reverse_iteratorINS1_IPNS_6vectorIiNS_9allocatorIiEEEEEEEEvE6__callB8ne180100ERKS8_, symObjAddr: 0x98DC, symBinAddr: 0x10000C634, symSize: 0x38 }
  - { offsetInCU: 0x1A905, offset: 0x1A905, size: 0x8, addend: 0x0, symName: __ZNKSt3__116reverse_iteratorINS0_IPNS_6vectorIiNS_9allocatorIiEEEEEEEptB8ne180100Ev, symObjAddr: 0x9914, symBinAddr: 0x10000C66C, symSize: 0x24 }
  - { offsetInCU: 0x1A92B, offset: 0x1A92B, size: 0x8, addend: 0x0, symName: __ZNKSt3__116reverse_iteratorINS0_IPNS_6vectorIiNS_9allocatorIiEEEEEEEdeB8ne180100Ev, symObjAddr: 0x9938, symBinAddr: 0x10000C690, symSize: 0x34 }
  - { offsetInCU: 0x1A95F, offset: 0x1A95F, size: 0x8, addend: 0x0, symName: __ZNSt3__116reverse_iteratorIPNS_6vectorIiNS_9allocatorIiEEEEEmmB8ne180100Ev, symObjAddr: 0x996C, symBinAddr: 0x10000C6C4, symSize: 0x20 }
  - { offsetInCU: 0x1A985, offset: 0x1A985, size: 0x8, addend: 0x0, symName: __ZNSt3__116reverse_iteratorINS0_IPNS_6vectorIiNS_9allocatorIiEEEEEEEC2B8ne180100ES6_, symObjAddr: 0x998C, symBinAddr: 0x10000C6E4, symSize: 0x2C }
  - { offsetInCU: 0x1A9BD, offset: 0x1A9BD, size: 0x8, addend: 0x0, symName: __ZNSt3__116reverse_iteratorIPNS_6vectorIiNS_9allocatorIiEEEEEC2B8ne180100ES5_, symObjAddr: 0x99B8, symBinAddr: 0x10000C710, symSize: 0x28 }
  - { offsetInCU: 0x1A9F5, offset: 0x1A9F5, size: 0x8, addend: 0x0, symName: __ZNSt3__114__split_bufferINS_6vectorIiNS_9allocatorIiEEEERNS2_IS4_EEED2Ev, symObjAddr: 0x99E0, symBinAddr: 0x10000C738, symSize: 0x8C }
  - { offsetInCU: 0x1AA21, offset: 0x1AA21, size: 0x8, addend: 0x0, symName: __ZNSt3__114__split_bufferINS_6vectorIiNS_9allocatorIiEEEERNS2_IS4_EEE5clearB8ne180100Ev, symObjAddr: 0x9A6C, symBinAddr: 0x10000C7C4, symSize: 0x28 }
  - { offsetInCU: 0x1AA47, offset: 0x1AA47, size: 0x8, addend: 0x0, symName: __ZNKSt3__114__split_bufferINS_6vectorIiNS_9allocatorIiEEEERNS2_IS4_EEE8capacityB8ne180100Ev, symObjAddr: 0x9A94, symBinAddr: 0x10000C7EC, symSize: 0x40 }
  - { offsetInCU: 0x1AA6D, offset: 0x1AA6D, size: 0x8, addend: 0x0, symName: __ZNSt3__114__split_bufferINS_6vectorIiNS_9allocatorIiEEEERNS2_IS4_EEE17__destruct_at_endB8ne180100EPS4_, symObjAddr: 0x9AD4, symBinAddr: 0x10000C82C, symSize: 0x2C }
  - { offsetInCU: 0x1AAA1, offset: 0x1AAA1, size: 0x8, addend: 0x0, symName: __ZNSt3__114__split_bufferINS_6vectorIiNS_9allocatorIiEEEERNS2_IS4_EEE17__destruct_at_endB8ne180100EPS4_NS_17integral_constantIbLb0EEE, symObjAddr: 0x9B00, symBinAddr: 0x10000C858, symSize: 0x80 }
  - { offsetInCU: 0x1AAE0, offset: 0x1AAE0, size: 0x8, addend: 0x0, symName: __ZNKSt3__114__split_bufferINS_6vectorIiNS_9allocatorIiEEEERNS2_IS4_EEE9__end_capB8ne180100Ev, symObjAddr: 0x9B80, symBinAddr: 0x10000C8D8, symSize: 0x28 }
  - { offsetInCU: 0x1AB06, offset: 0x1AB06, size: 0x8, addend: 0x0, symName: __ZNKSt3__117__compressed_pairIPNS_6vectorIiNS_9allocatorIiEEEERNS2_IS4_EEE5firstB8ne180100Ev, symObjAddr: 0x9BA8, symBinAddr: 0x10000C900, symSize: 0x24 }
  - { offsetInCU: 0x1AB2C, offset: 0x1AB2C, size: 0x8, addend: 0x0, symName: __ZNKSt3__113basic_filebufIcNS_11char_traitsIcEEE7is_openEv, symObjAddr: 0x9BCC, symBinAddr: 0x10000C924, symSize: 0x24 }
  - { offsetInCU: 0x1AB54, offset: 0x1AB54, size: 0x8, addend: 0x0, symName: __ZNSt3__16vectorINS0_IbNS_9allocatorIbEEEENS1_IS3_EEEC2B8ne180100Ev, symObjAddr: 0x9BF0, symBinAddr: 0x10000C948, symSize: 0x4C }
  - { offsetInCU: 0x1AB7E, offset: 0x1AB7E, size: 0x8, addend: 0x0, symName: __ZNSt3__117__compressed_pairIPNS_6vectorIbNS_9allocatorIbEEEENS2_IS4_EEEC1B8ne180100IDnNS_18__default_init_tagEEEOT_OT0_, symObjAddr: 0x9C3C, symBinAddr: 0x10000C994, symSize: 0x3C }
  - { offsetInCU: 0x1ABD6, offset: 0x1ABD6, size: 0x8, addend: 0x0, symName: __ZNSt3__117__compressed_pairIPNS_6vectorIbNS_9allocatorIbEEEENS2_IS4_EEEC2B8ne180100IDnNS_18__default_init_tagEEEOT_OT0_, symObjAddr: 0x9C78, symBinAddr: 0x10000C9D0, symSize: 0x40 }
  - { offsetInCU: 0x1AC2E, offset: 0x1AC2E, size: 0x8, addend: 0x0, symName: __ZNSt3__122__compressed_pair_elemIPNS_6vectorIbNS_9allocatorIbEEEELi0ELb0EEC2B8ne180100IDnvEEOT_, symObjAddr: 0x9CB8, symBinAddr: 0x10000CA10, symSize: 0x1C }
  - { offsetInCU: 0x1AC70, offset: 0x1AC70, size: 0x8, addend: 0x0, symName: __ZNSt3__122__compressed_pair_elemINS_9allocatorINS_6vectorIbNS1_IbEEEEEELi1ELb1EEC2B8ne180100ENS_18__default_init_tagE, symObjAddr: 0x9CD4, symBinAddr: 0x10000CA2C, symSize: 0x2C }
  - { offsetInCU: 0x1ACA4, offset: 0x1ACA4, size: 0x8, addend: 0x0, symName: __ZNSt3__19allocatorINS_6vectorIbNS0_IbEEEEEC2B8ne180100Ev, symObjAddr: 0x9D00, symBinAddr: 0x10000CA58, symSize: 0x2C }
  - { offsetInCU: 0x1ACCE, offset: 0x1ACCE, size: 0x8, addend: 0x0, symName: __ZNSt3__116__non_trivial_ifILb1ENS_9allocatorINS_6vectorIbNS1_IbEEEEEEEC2B8ne180100Ev, symObjAddr: 0x9D2C, symBinAddr: 0x10000CA84, symSize: 0x14 }
  - { offsetInCU: 0x1ACF8, offset: 0x1ACF8, size: 0x8, addend: 0x0, symName: __ZNSt3__16vectorINS0_IbNS_9allocatorIbEEEENS1_IS3_EEED2B8ne180100Ev, symObjAddr: 0x9D40, symBinAddr: 0x10000CA98, symSize: 0x44 }
  - { offsetInCU: 0x1AD22, offset: 0x1AD22, size: 0x8, addend: 0x0, symName: __ZNSt3__16vectorINS0_IbNS_9allocatorIbEEEENS1_IS3_EEE16__destroy_vectorC1B8ne180100ERS5_, symObjAddr: 0x9D84, symBinAddr: 0x10000CADC, symSize: 0x34 }
  - { offsetInCU: 0x1AD5B, offset: 0x1AD5B, size: 0x8, addend: 0x0, symName: __ZNSt3__16vectorINS0_IbNS_9allocatorIbEEEENS1_IS3_EEE16__destroy_vectorclB8ne180100Ev, symObjAddr: 0x9DB8, symBinAddr: 0x10000CB10, symSize: 0x90 }
  - { offsetInCU: 0x1AD81, offset: 0x1AD81, size: 0x8, addend: 0x0, symName: __ZNSt3__16vectorINS0_IbNS_9allocatorIbEEEENS1_IS3_EEE16__destroy_vectorC2B8ne180100ERS5_, symObjAddr: 0x9E48, symBinAddr: 0x10000CBA0, symSize: 0x20 }
  - { offsetInCU: 0x1ADBA, offset: 0x1ADBA, size: 0x8, addend: 0x0, symName: __ZNSt3__16vectorINS0_IbNS_9allocatorIbEEEENS1_IS3_EEE7__clearB8ne180100Ev, symObjAddr: 0x9E68, symBinAddr: 0x10000CBC0, symSize: 0x28 }
  - { offsetInCU: 0x1ADE0, offset: 0x1ADE0, size: 0x8, addend: 0x0, symName: __ZNKSt3__16vectorINS0_IbNS_9allocatorIbEEEENS1_IS3_EEE17__annotate_deleteB8ne180100Ev, symObjAddr: 0x9E90, symBinAddr: 0x10000CBE8, symSize: 0x10 }
  - { offsetInCU: 0x1AE06, offset: 0x1AE06, size: 0x8, addend: 0x0, symName: __ZNSt3__116allocator_traitsINS_9allocatorINS_6vectorIbNS1_IbEEEEEEE10deallocateB8ne180100ERS5_PS4_m, symObjAddr: 0x9EA0, symBinAddr: 0x10000CBF8, symSize: 0x34 }
  - { offsetInCU: 0x1AE48, offset: 0x1AE48, size: 0x8, addend: 0x0, symName: __ZNSt3__16vectorINS0_IbNS_9allocatorIbEEEENS1_IS3_EEE7__allocB8ne180100Ev, symObjAddr: 0x9ED4, symBinAddr: 0x10000CC2C, symSize: 0x28 }
  - { offsetInCU: 0x1AE6E, offset: 0x1AE6E, size: 0x8, addend: 0x0, symName: __ZNKSt3__16vectorINS0_IbNS_9allocatorIbEEEENS1_IS3_EEE8capacityB8ne180100Ev, symObjAddr: 0x9EFC, symBinAddr: 0x10000CC54, symSize: 0x40 }
  - { offsetInCU: 0x1AE94, offset: 0x1AE94, size: 0x8, addend: 0x0, symName: __ZNSt3__16vectorINS0_IbNS_9allocatorIbEEEENS1_IS3_EEE22__base_destruct_at_endB8ne180100EPS3_, symObjAddr: 0x9F3C, symBinAddr: 0x10000CC94, symSize: 0x8C }
  - { offsetInCU: 0x1AED8, offset: 0x1AED8, size: 0x8, addend: 0x0, symName: __ZNSt3__116allocator_traitsINS_9allocatorINS_6vectorIbNS1_IbEEEEEEE7destroyB8ne180100IS4_vEEvRS5_PT_, symObjAddr: 0x9FC8, symBinAddr: 0x10000CD20, symSize: 0x2C }
  - { offsetInCU: 0x1AF15, offset: 0x1AF15, size: 0x8, addend: 0x0, symName: __ZNSt3__19allocatorINS_6vectorIbNS0_IbEEEEE7destroyB8ne180100EPS3_, symObjAddr: 0xA008, symBinAddr: 0x10000CD60, symSize: 0x28 }
  - { offsetInCU: 0x1AF49, offset: 0x1AF49, size: 0x8, addend: 0x0, symName: __ZNSt3__19allocatorINS_6vectorIbNS0_IbEEEEE10deallocateB8ne180100EPS3_m, symObjAddr: 0xA030, symBinAddr: 0x10000CD88, symSize: 0x44 }
  - { offsetInCU: 0x1AF8B, offset: 0x1AF8B, size: 0x8, addend: 0x0, symName: __ZNSt3__117__compressed_pairIPNS_6vectorIbNS_9allocatorIbEEEENS2_IS4_EEE6secondB8ne180100Ev, symObjAddr: 0xA074, symBinAddr: 0x10000CDCC, symSize: 0x24 }
  - { offsetInCU: 0x1AFB1, offset: 0x1AFB1, size: 0x8, addend: 0x0, symName: __ZNSt3__122__compressed_pair_elemINS_9allocatorINS_6vectorIbNS1_IbEEEEEELi1ELb1EE5__getB8ne180100Ev, symObjAddr: 0xA098, symBinAddr: 0x10000CDF0, symSize: 0x14 }
  - { offsetInCU: 0x1AFD7, offset: 0x1AFD7, size: 0x8, addend: 0x0, symName: __ZNKSt3__16vectorINS0_IbNS_9allocatorIbEEEENS1_IS3_EEE9__end_capB8ne180100Ev, symObjAddr: 0xA0AC, symBinAddr: 0x10000CE04, symSize: 0x28 }
  - { offsetInCU: 0x1AFFD, offset: 0x1AFFD, size: 0x8, addend: 0x0, symName: __ZNKSt3__117__compressed_pairIPNS_6vectorIbNS_9allocatorIbEEEENS2_IS4_EEE5firstB8ne180100Ev, symObjAddr: 0xA0D4, symBinAddr: 0x10000CE2C, symSize: 0x24 }
  - { offsetInCU: 0x1B023, offset: 0x1B023, size: 0x8, addend: 0x0, symName: __ZNKSt3__122__compressed_pair_elemIPNS_6vectorIbNS_9allocatorIbEEEELi0ELb0EE5__getB8ne180100Ev, symObjAddr: 0xA0F8, symBinAddr: 0x10000CE50, symSize: 0x14 }
  - { offsetInCU: 0x1B049, offset: 0x1B049, size: 0x8, addend: 0x0, symName: __ZNSt3__16vectorIbNS_9allocatorIbEEEC2B8ne180100Ev, symObjAddr: 0xA10C, symBinAddr: 0x10000CE64, symSize: 0x4C }
  - { offsetInCU: 0x1B075, offset: 0x1B075, size: 0x8, addend: 0x0, symName: __ZNSt3__117__compressed_pairImNS_9allocatorImEEEC1B8ne180100IiNS_18__default_init_tagEEEOT_OT0_, symObjAddr: 0xA158, symBinAddr: 0x10000CEB0, symSize: 0x3C }
  - { offsetInCU: 0x1B0CD, offset: 0x1B0CD, size: 0x8, addend: 0x0, symName: __ZNSt3__117__compressed_pairImNS_9allocatorImEEEC2B8ne180100IiNS_18__default_init_tagEEEOT_OT0_, symObjAddr: 0xA194, symBinAddr: 0x10000CEEC, symSize: 0x40 }
  - { offsetInCU: 0x1B125, offset: 0x1B125, size: 0x8, addend: 0x0, symName: __ZNSt3__122__compressed_pair_elemImLi0ELb0EEC2B8ne180100IivEEOT_, symObjAddr: 0xA1D4, symBinAddr: 0x10000CF2C, symSize: 0x24 }
  - { offsetInCU: 0x1B167, offset: 0x1B167, size: 0x8, addend: 0x0, symName: __ZNSt3__122__compressed_pair_elemINS_9allocatorImEELi1ELb1EEC2B8ne180100ENS_18__default_init_tagE, symObjAddr: 0xA1F8, symBinAddr: 0x10000CF50, symSize: 0x2C }
  - { offsetInCU: 0x1B19B, offset: 0x1B19B, size: 0x8, addend: 0x0, symName: __ZNSt3__19allocatorImEC2B8ne180100Ev, symObjAddr: 0xA224, symBinAddr: 0x10000CF7C, symSize: 0x2C }
  - { offsetInCU: 0x1B1C5, offset: 0x1B1C5, size: 0x8, addend: 0x0, symName: __ZNSt3__116__non_trivial_ifILb1ENS_9allocatorImEEEC2B8ne180100Ev, symObjAddr: 0xA250, symBinAddr: 0x10000CFA8, symSize: 0x14 }
  - { offsetInCU: 0x1B1EF, offset: 0x1B1EF, size: 0x8, addend: 0x0, symName: __ZNSt3__16vectorIbNS_9allocatorIbEEED2B8ne180100Ev, symObjAddr: 0xA264, symBinAddr: 0x10000CFBC, symSize: 0x44 }
  - { offsetInCU: 0x1B219, offset: 0x1B219, size: 0x8, addend: 0x0, symName: __ZNSt3__16vectorIbNS_9allocatorIbEEE16__destroy_vectorC1B8ne180100ERS3_, symObjAddr: 0xA2A8, symBinAddr: 0x10000D000, symSize: 0x34 }
  - { offsetInCU: 0x1B252, offset: 0x1B252, size: 0x8, addend: 0x0, symName: __ZNSt3__16vectorIbNS_9allocatorIbEEE16__destroy_vectorclB8ne180100Ev, symObjAddr: 0xA2DC, symBinAddr: 0x10000D034, symSize: 0x7C }
  - { offsetInCU: 0x1B278, offset: 0x1B278, size: 0x8, addend: 0x0, symName: __ZNSt3__16vectorIbNS_9allocatorIbEEE16__destroy_vectorC2B8ne180100ERS3_, symObjAddr: 0xA358, symBinAddr: 0x10000D0B0, symSize: 0x20 }
  - { offsetInCU: 0x1B2B1, offset: 0x1B2B1, size: 0x8, addend: 0x0, symName: __ZNSt3__116allocator_traitsINS_9allocatorImEEE10deallocateB8ne180100ERS2_Pmm, symObjAddr: 0xA378, symBinAddr: 0x10000D0D0, symSize: 0x34 }
  - { offsetInCU: 0x1B2F3, offset: 0x1B2F3, size: 0x8, addend: 0x0, symName: __ZNSt3__16vectorIbNS_9allocatorIbEEE7__allocB8ne180100Ev, symObjAddr: 0xA3AC, symBinAddr: 0x10000D104, symSize: 0x28 }
  - { offsetInCU: 0x1B319, offset: 0x1B319, size: 0x8, addend: 0x0, symName: __ZNSt3__16vectorIbNS_9allocatorIbEEE5__capB8ne180100Ev, symObjAddr: 0xA3D4, symBinAddr: 0x10000D12C, symSize: 0x28 }
  - { offsetInCU: 0x1B33F, offset: 0x1B33F, size: 0x8, addend: 0x0, symName: __ZNSt3__19allocatorImE10deallocateB8ne180100EPmm, symObjAddr: 0xA3FC, symBinAddr: 0x10000D154, symSize: 0x40 }
  - { offsetInCU: 0x1B381, offset: 0x1B381, size: 0x8, addend: 0x0, symName: __ZNSt3__117__compressed_pairImNS_9allocatorImEEE6secondB8ne180100Ev, symObjAddr: 0xA43C, symBinAddr: 0x10000D194, symSize: 0x24 }
  - { offsetInCU: 0x1B3A7, offset: 0x1B3A7, size: 0x8, addend: 0x0, symName: __ZNSt3__122__compressed_pair_elemINS_9allocatorImEELi1ELb1EE5__getB8ne180100Ev, symObjAddr: 0xA460, symBinAddr: 0x10000D1B8, symSize: 0x14 }
  - { offsetInCU: 0x1B3CD, offset: 0x1B3CD, size: 0x8, addend: 0x0, symName: __ZNSt3__117__compressed_pairImNS_9allocatorImEEE5firstB8ne180100Ev, symObjAddr: 0xA474, symBinAddr: 0x10000D1CC, symSize: 0x24 }
  - { offsetInCU: 0x1B3F3, offset: 0x1B3F3, size: 0x8, addend: 0x0, symName: __ZNSt3__122__compressed_pair_elemImLi0ELb0EE5__getB8ne180100Ev, symObjAddr: 0xA498, symBinAddr: 0x10000D1F0, symSize: 0x14 }
  - { offsetInCU: 0x1B419, offset: 0x1B419, size: 0x8, addend: 0x0, symName: __ZNKSt3__16vectorIbNS_9allocatorIbEEE8capacityB8ne180100Ev, symObjAddr: 0xA4AC, symBinAddr: 0x10000D204, symSize: 0x2C }
  - { offsetInCU: 0x1B43F, offset: 0x1B43F, size: 0x8, addend: 0x0, symName: __ZNSt3__16vectorIbNS_9allocatorIbEEE7reserveEm, symObjAddr: 0xA4D8, symBinAddr: 0x10000D230, symSize: 0x118 }
  - { offsetInCU: 0x1B48A, offset: 0x1B48A, size: 0x8, addend: 0x0, symName: __ZNKSt3__16vectorIbNS_9allocatorIbEEE11__recommendB8ne180100Em, symObjAddr: 0xA5F0, symBinAddr: 0x10000D348, symSize: 0xCC }
  - { offsetInCU: 0x1B4DE, offset: 0x1B4DE, size: 0x8, addend: 0x0, symName: __ZNSt3__16vectorIbNS_9allocatorIbEEE4backB8ne180100Ev, symObjAddr: 0xA6BC, symBinAddr: 0x10000D414, symSize: 0x3C }
  - { offsetInCU: 0x1B504, offset: 0x1B504, size: 0x8, addend: 0x0, symName: __ZNSt3__16vectorIbNS_9allocatorIbEEE26__internal_cap_to_externalB8ne180100Em, symObjAddr: 0xA6F8, symBinAddr: 0x10000D450, symSize: 0x18 }
  - { offsetInCU: 0x1B528, offset: 0x1B528, size: 0x8, addend: 0x0, symName: __ZNKSt3__16vectorIbNS_9allocatorIbEEE5__capB8ne180100Ev, symObjAddr: 0xA710, symBinAddr: 0x10000D468, symSize: 0x28 }
  - { offsetInCU: 0x1B54E, offset: 0x1B54E, size: 0x8, addend: 0x0, symName: __ZNKSt3__117__compressed_pairImNS_9allocatorImEEE5firstB8ne180100Ev, symObjAddr: 0xA738, symBinAddr: 0x10000D490, symSize: 0x24 }
  - { offsetInCU: 0x1B574, offset: 0x1B574, size: 0x8, addend: 0x0, symName: __ZNKSt3__122__compressed_pair_elemImLi0ELb0EE5__getB8ne180100Ev, symObjAddr: 0xA75C, symBinAddr: 0x10000D4B4, symSize: 0x14 }
  - { offsetInCU: 0x1B59A, offset: 0x1B59A, size: 0x8, addend: 0x0, symName: __ZNKSt3__16vectorIbNS_9allocatorIbEEE8max_sizeEv, symObjAddr: 0xA770, symBinAddr: 0x10000D4C8, symSize: 0x7C }
  - { offsetInCU: 0x1B5DF, offset: 0x1B5DF, size: 0x8, addend: 0x0, symName: __ZNKSt3__16vectorIbNS_9allocatorIbEEE20__throw_length_errorB8ne180100Ev, symObjAddr: 0xA7EC, symBinAddr: 0x10000D544, symSize: 0x1C }
  - { offsetInCU: 0x1B605, offset: 0x1B605, size: 0x8, addend: 0x0, symName: __ZNKSt3__16vectorIbNS_9allocatorIbEEE13get_allocatorB8ne180100Ev, symObjAddr: 0xA808, symBinAddr: 0x10000D560, symSize: 0x30 }
  - { offsetInCU: 0x1B62B, offset: 0x1B62B, size: 0x8, addend: 0x0, symName: __ZNSt3__16vectorIbNS_9allocatorIbEEEC1B8ne180100ERKS2_, symObjAddr: 0xA838, symBinAddr: 0x10000D590, symSize: 0x34 }
  - { offsetInCU: 0x1B666, offset: 0x1B666, size: 0x8, addend: 0x0, symName: __ZNSt3__16vectorIbNS_9allocatorIbEEE11__vallocateB8ne180100Em, symObjAddr: 0xA86C, symBinAddr: 0x10000D5C4, symSize: 0xA0 }
  - { offsetInCU: 0x1B6AA, offset: 0x1B6AA, size: 0x8, addend: 0x0, symName: __ZNSt3__16vectorIbNS_9allocatorIbEEE18__construct_at_endINS_14__bit_iteratorIS3_Lb0ELm0EEES6_EEvT_T0_m, symObjAddr: 0xA90C, symBinAddr: 0x10000D664, symSize: 0x12C }
  - { offsetInCU: 0x1B721, offset: 0x1B721, size: 0x8, addend: 0x0, symName: __ZNSt3__16vectorIbNS_9allocatorIbEEE4swapERS3_, symObjAddr: 0xAA38, symBinAddr: 0x10000D790, symSize: 0x84 }
  - { offsetInCU: 0x1B761, offset: 0x1B761, size: 0x8, addend: 0x0, symName: __ZNSt3__116allocator_traitsINS_9allocatorImEEE8max_sizeB8ne180100IS2_vEEmRKS2_, symObjAddr: 0xAABC, symBinAddr: 0x10000D814, symSize: 0x24 }
  - { offsetInCU: 0x1B78F, offset: 0x1B78F, size: 0x8, addend: 0x0, symName: __ZNKSt3__16vectorIbNS_9allocatorIbEEE7__allocB8ne180100Ev, symObjAddr: 0xAAE0, symBinAddr: 0x10000D838, symSize: 0x28 }
  - { offsetInCU: 0x1B7B5, offset: 0x1B7B5, size: 0x8, addend: 0x0, symName: __ZNKSt3__19allocatorImE8max_sizeB8ne180100Ev, symObjAddr: 0xAB08, symBinAddr: 0x10000D860, symSize: 0x14 }
  - { offsetInCU: 0x1B7DB, offset: 0x1B7DB, size: 0x8, addend: 0x0, symName: __ZNKSt3__117__compressed_pairImNS_9allocatorImEEE6secondB8ne180100Ev, symObjAddr: 0xAB1C, symBinAddr: 0x10000D874, symSize: 0x24 }
  - { offsetInCU: 0x1B801, offset: 0x1B801, size: 0x8, addend: 0x0, symName: __ZNKSt3__122__compressed_pair_elemINS_9allocatorImEELi1ELb1EE5__getB8ne180100Ev, symObjAddr: 0xAB40, symBinAddr: 0x10000D898, symSize: 0x14 }
  - { offsetInCU: 0x1B827, offset: 0x1B827, size: 0x8, addend: 0x0, symName: __ZNSt3__19allocatorIbEC1B8ne180100ImEERKNS0_IT_EE, symObjAddr: 0xAB54, symBinAddr: 0x10000D8AC, symSize: 0x34 }
  - { offsetInCU: 0x1B864, offset: 0x1B864, size: 0x8, addend: 0x0, symName: __ZNSt3__19allocatorIbEC2B8ne180100ImEERKNS0_IT_EE, symObjAddr: 0xAB88, symBinAddr: 0x10000D8E0, symSize: 0x30 }
  - { offsetInCU: 0x1B8A1, offset: 0x1B8A1, size: 0x8, addend: 0x0, symName: __ZNSt3__116__non_trivial_ifILb1ENS_9allocatorIbEEEC2B8ne180100Ev, symObjAddr: 0xABB8, symBinAddr: 0x10000D910, symSize: 0x14 }
  - { offsetInCU: 0x1B8CB, offset: 0x1B8CB, size: 0x8, addend: 0x0, symName: __ZNSt3__16vectorIbNS_9allocatorIbEEEC2B8ne180100ERKS2_, symObjAddr: 0xABCC, symBinAddr: 0x10000D924, symSize: 0x6C }
  - { offsetInCU: 0x1B90B, offset: 0x1B90B, size: 0x8, addend: 0x0, symName: __ZNSt3__19allocatorImEC1B8ne180100IbEERKNS0_IT_EE, symObjAddr: 0xAC38, symBinAddr: 0x10000D990, symSize: 0x34 }
  - { offsetInCU: 0x1B94D, offset: 0x1B94D, size: 0x8, addend: 0x0, symName: __ZNSt3__117__compressed_pairImNS_9allocatorImEEEC1B8ne180100IiS2_EEOT_OT0_, symObjAddr: 0xAC6C, symBinAddr: 0x10000D9C4, symSize: 0x3C }
  - { offsetInCU: 0x1B9A5, offset: 0x1B9A5, size: 0x8, addend: 0x0, symName: __ZNSt3__19allocatorImEC2B8ne180100IbEERKNS0_IT_EE, symObjAddr: 0xACA8, symBinAddr: 0x10000DA00, symSize: 0x30 }
  - { offsetInCU: 0x1B9E2, offset: 0x1B9E2, size: 0x8, addend: 0x0, symName: __ZNSt3__117__compressed_pairImNS_9allocatorImEEEC2B8ne180100IiS2_EEOT_OT0_, symObjAddr: 0xACD8, symBinAddr: 0x10000DA30, symSize: 0x44 }
  - { offsetInCU: 0x1BA3A, offset: 0x1BA3A, size: 0x8, addend: 0x0, symName: __ZNSt3__122__compressed_pair_elemINS_9allocatorImEELi1ELb1EEC2B8ne180100IS2_vEEOT_, symObjAddr: 0xAD1C, symBinAddr: 0x10000DA74, symSize: 0x18 }
  - { offsetInCU: 0x1BA7C, offset: 0x1BA7C, size: 0x8, addend: 0x0, symName: __ZNSt3__16vectorIbNS_9allocatorIbEEE26__external_cap_to_internalB8ne180100Em, symObjAddr: 0xAD74, symBinAddr: 0x10000DACC, symSize: 0x24 }
  - { offsetInCU: 0x1BAA0, offset: 0x1BAA0, size: 0x8, addend: 0x0, symName: __ZNSt3__19allocatorImE8allocateB8ne180100Em, symObjAddr: 0xAD98, symBinAddr: 0x10000DAF0, symSize: 0x58 }
  - { offsetInCU: 0x1BAD4, offset: 0x1BAD4, size: 0x8, addend: 0x0, symName: __ZNSt3__114__bit_iteratorINS_6vectorIbNS_9allocatorIbEEEELb0ELm0EEC1B8ne180100ERKS5_, symObjAddr: 0xAE78, symBinAddr: 0x10000DBD0, symSize: 0x34 }
  - { offsetInCU: 0x1BB0D, offset: 0x1BB0D, size: 0x8, addend: 0x0, symName: __ZNSt3__16vectorIbNS_9allocatorIbEEE11__make_iterB8ne180100Em, symObjAddr: 0xAEAC, symBinAddr: 0x10000DC04, symSize: 0x64 }
  - { offsetInCU: 0x1BB65, offset: 0x1BB65, size: 0x8, addend: 0x0, symName: __ZNKSt3__111__copy_loopINS_17_ClassicAlgPolicyEEclB8ne180100INS_14__bit_iteratorINS_6vectorIbNS_9allocatorIbEEEELb0ELm0EEES9_S9_EENS_4pairIT_T1_EESB_T0_SC_, symObjAddr: 0xB180, symBinAddr: 0x10000DED8, symSize: 0xB8 }
  - { offsetInCU: 0x1BBD3, offset: 0x1BBD3, size: 0x8, addend: 0x0, symName: __ZNSt3__115__bit_referenceINS_6vectorIbNS_9allocatorIbEEEELb1EEaSB8ne180100ERKS5_, symObjAddr: 0xB39C, symBinAddr: 0x10000E0F4, symSize: 0x40 }
  - { offsetInCU: 0x1BC07, offset: 0x1BC07, size: 0x8, addend: 0x0, symName: __ZNSt3__118__unwrap_iter_implINS_14__bit_iteratorINS_6vectorIbNS_9allocatorIbEEEELb0ELm0EEELb0EE8__unwrapB8ne180100ES6_, symObjAddr: 0xB3DC, symBinAddr: 0x10000E134, symSize: 0x38 }
  - { offsetInCU: 0x1BC30, offset: 0x1BC30, size: 0x8, addend: 0x0, symName: __ZNSt3__14pairINS_14__bit_iteratorINS_6vectorIbNS_9allocatorIbEEEELb0ELm0EEES6_EC1B8ne180100IS6_S6_Li0EEEOT_OT0_, symObjAddr: 0xB414, symBinAddr: 0x10000E16C, symSize: 0x3C }
  - { offsetInCU: 0x1BC8E, offset: 0x1BC8E, size: 0x8, addend: 0x0, symName: __ZNSt3__14pairINS_14__bit_iteratorINS_6vectorIbNS_9allocatorIbEEEELb0ELm0EEES6_EC2B8ne180100IS6_S6_Li0EEEOT_OT0_, symObjAddr: 0xB450, symBinAddr: 0x10000E1A8, symSize: 0x48 }
  - { offsetInCU: 0x1BCEC, offset: 0x1BCEC, size: 0x8, addend: 0x0, symName: __ZNSt3__118__unwrap_iter_implINS_14__bit_iteratorINS_6vectorIbNS_9allocatorIbEEEELb0ELm0EEELb0EE8__rewrapB8ne180100ES6_S6_, symObjAddr: 0xB498, symBinAddr: 0x10000E1F0, symSize: 0x3C }
  - { offsetInCU: 0x1BD1B, offset: 0x1BD1B, size: 0x8, addend: 0x0, symName: __ZNSt3__114__bit_iteratorINS_6vectorIbNS_9allocatorIbEEEELb0ELm0EEC2B8ne180100ERKS5_, symObjAddr: 0xB4D4, symBinAddr: 0x10000E22C, symSize: 0x30 }
  - { offsetInCU: 0x1BD54, offset: 0x1BD54, size: 0x8, addend: 0x0, symName: __ZNSt3__114__bit_iteratorINS_6vectorIbNS_9allocatorIbEEEELb0ELm0EEC1B8ne180100EPmj, symObjAddr: 0xB504, symBinAddr: 0x10000E25C, symSize: 0x3C }
  - { offsetInCU: 0x1BD9C, offset: 0x1BD9C, size: 0x8, addend: 0x0, symName: __ZNSt3__114__bit_iteratorINS_6vectorIbNS_9allocatorIbEEEELb0ELm0EEC2B8ne180100EPmj, symObjAddr: 0xB540, symBinAddr: 0x10000E298, symSize: 0x2C }
  - { offsetInCU: 0x1BDE4, offset: 0x1BDE4, size: 0x8, addend: 0x0, symName: __ZNSt3__16vectorIbNS_9allocatorIbEEE10__align_itB8ne180100Em, symObjAddr: 0xB5F8, symBinAddr: 0x10000E350, symSize: 0x1C }
  - { offsetInCU: 0x1BE08, offset: 0x1BE08, size: 0x8, addend: 0x0, symName: __ZNSt3__16vectorIbNS_9allocatorIbEEE10__make_refB8ne180100Em, symObjAddr: 0xB614, symBinAddr: 0x10000E36C, symSize: 0x60 }
  - { offsetInCU: 0x1BE3D, offset: 0x1BE3D, size: 0x8, addend: 0x0, symName: __ZNSt3__115__bit_referenceINS_6vectorIbNS_9allocatorIbEEEELb1EEC1B8ne180100EPmm, symObjAddr: 0xB674, symBinAddr: 0x10000E3CC, symSize: 0x3C }
  - { offsetInCU: 0x1BE83, offset: 0x1BE83, size: 0x8, addend: 0x0, symName: __ZNSt3__115__bit_referenceINS_6vectorIbNS_9allocatorIbEEEELb1EEC2B8ne180100EPmm, symObjAddr: 0xB6B0, symBinAddr: 0x10000E408, symSize: 0x2C }
  - { offsetInCU: 0x1BEC9, offset: 0x1BEC9, size: 0x8, addend: 0x0, symName: __ZNSt3__16vectorINS0_IbNS_9allocatorIbEEEENS1_IS3_EEE9__end_capB8ne180100Ev, symObjAddr: 0xB6DC, symBinAddr: 0x10000E434, symSize: 0x28 }
  - { offsetInCU: 0x1BEEF, offset: 0x1BEEF, size: 0x8, addend: 0x0, symName: __ZNSt3__16vectorINS0_IbNS_9allocatorIbEEEENS1_IS3_EEE22__construct_one_at_endB8ne180100IJRKS3_EEEvDpOT_, symObjAddr: 0xB704, symBinAddr: 0x10000E45C, symSize: 0x90 }
  - { offsetInCU: 0x1BF3E, offset: 0x1BF3E, size: 0x8, addend: 0x0, symName: __ZNSt3__16vectorINS0_IbNS_9allocatorIbEEEENS1_IS3_EEE21__push_back_slow_pathIRKS3_EEPS3_OT_, symObjAddr: 0xB794, symBinAddr: 0x10000E4EC, symSize: 0xE8 }
  - { offsetInCU: 0x1BF9B, offset: 0x1BF9B, size: 0x8, addend: 0x0, symName: __ZNSt3__117__compressed_pairIPNS_6vectorIbNS_9allocatorIbEEEENS2_IS4_EEE5firstB8ne180100Ev, symObjAddr: 0xB87C, symBinAddr: 0x10000E5D4, symSize: 0x24 }
  - { offsetInCU: 0x1BFC1, offset: 0x1BFC1, size: 0x8, addend: 0x0, symName: __ZNSt3__122__compressed_pair_elemIPNS_6vectorIbNS_9allocatorIbEEEELi0ELb0EE5__getB8ne180100Ev, symObjAddr: 0xB8A0, symBinAddr: 0x10000E5F8, symSize: 0x14 }
  - { offsetInCU: 0x1C000, offset: 0x1C000, size: 0x8, addend: 0x0, symName: __ZNSt3__16vectorINS0_IbNS_9allocatorIbEEEENS1_IS3_EEE21_ConstructTransactionC1B8ne180100ERS5_m, symObjAddr: 0xB8B4, symBinAddr: 0x10000E60C, symSize: 0x3C }
  - { offsetInCU: 0x1C048, offset: 0x1C048, size: 0x8, addend: 0x0, symName: __ZNSt3__116allocator_traitsINS_9allocatorINS_6vectorIbNS1_IbEEEEEEE9constructB8ne180100IS4_JRKS4_EvEEvRS5_PT_DpOT0_, symObjAddr: 0xB8F0, symBinAddr: 0x10000E648, symSize: 0x34 }
  - { offsetInCU: 0x1C09F, offset: 0x1C09F, size: 0x8, addend: 0x0, symName: __ZNSt3__16vectorINS0_IbNS_9allocatorIbEEEENS1_IS3_EEE21_ConstructTransactionD1B8ne180100Ev, symObjAddr: 0xB924, symBinAddr: 0x10000E67C, symSize: 0x2C }
  - { offsetInCU: 0x1C0C9, offset: 0x1C0C9, size: 0x8, addend: 0x0, symName: __ZNSt3__16vectorINS0_IbNS_9allocatorIbEEEENS1_IS3_EEE21_ConstructTransactionC2B8ne180100ERS5_m, symObjAddr: 0xB950, symBinAddr: 0x10000E6A8, symSize: 0x4C }
  - { offsetInCU: 0x1C111, offset: 0x1C111, size: 0x8, addend: 0x0, symName: __ZNSt3__19allocatorINS_6vectorIbNS0_IbEEEEE9constructB8ne180100IS3_JRKS3_EEEvPT_DpOT0_, symObjAddr: 0xB99C, symBinAddr: 0x10000E6F4, symSize: 0x30 }
  - { offsetInCU: 0x1C167, offset: 0x1C167, size: 0x8, addend: 0x0, symName: __ZNSt3__16vectorIbNS_9allocatorIbEEEC1ERKS3_, symObjAddr: 0xB9CC, symBinAddr: 0x10000E724, symSize: 0x34 }
  - { offsetInCU: 0x1C1A2, offset: 0x1C1A2, size: 0x8, addend: 0x0, symName: __ZNSt3__16vectorIbNS_9allocatorIbEEEC2ERKS3_, symObjAddr: 0xBA00, symBinAddr: 0x10000E758, symSize: 0xDC }
  - { offsetInCU: 0x1C1DD, offset: 0x1C1DD, size: 0x8, addend: 0x0, symName: __ZNSt3__116allocator_traitsINS_9allocatorImEEE37select_on_container_copy_constructionB8ne180100IS2_vvEES2_RKS2_, symObjAddr: 0xBADC, symBinAddr: 0x10000E834, symSize: 0x10 }
  - { offsetInCU: 0x1C20C, offset: 0x1C20C, size: 0x8, addend: 0x0, symName: __ZNSt3__16vectorIbNS_9allocatorIbEEE18__construct_at_endINS_14__bit_iteratorIS3_Lb1ELm0EEES6_EEvT_T0_m, symObjAddr: 0xBAEC, symBinAddr: 0x10000E844, symSize: 0x124 }
  - { offsetInCU: 0x1C29A, offset: 0x1C29A, size: 0x8, addend: 0x0, symName: __ZNKSt3__111__copy_loopINS_17_ClassicAlgPolicyEEclB8ne180100INS_14__bit_iteratorINS_6vectorIbNS_9allocatorIbEEEELb1ELm0EEES9_NS4_IS8_Lb0ELm0EEEEENS_4pairIT_T1_EESC_T0_SD_, symObjAddr: 0xBEDC, symBinAddr: 0x10000EC34, symSize: 0xC4 }
  - { offsetInCU: 0x1C324, offset: 0x1C324, size: 0x8, addend: 0x0, symName: __ZNSt3__14pairINS_14__bit_iteratorINS_6vectorIbNS_9allocatorIbEEEELb1ELm0EEES6_EC1B8ne180100IS6_S6_Li0EEEOT_OT0_, symObjAddr: 0xC0B8, symBinAddr: 0x10000EE10, symSize: 0x3C }
  - { offsetInCU: 0x1C382, offset: 0x1C382, size: 0x8, addend: 0x0, symName: __ZNSt3__14pairINS_14__bit_iteratorINS_6vectorIbNS_9allocatorIbEEEELb1ELm0EEES6_EC2B8ne180100IS6_S6_Li0EEEOT_OT0_, symObjAddr: 0xC0F4, symBinAddr: 0x10000EE4C, symSize: 0x34 }
  - { offsetInCU: 0x1C3E0, offset: 0x1C3E0, size: 0x8, addend: 0x0, symName: __ZNSt3__118__unwrap_iter_implINS_14__bit_iteratorINS_6vectorIbNS_9allocatorIbEEEELb1ELm0EEELb0EE8__unwrapB8ne180100ES6_, symObjAddr: 0xC128, symBinAddr: 0x10000EE80, symSize: 0x24 }
  - { offsetInCU: 0x1C403, offset: 0x1C403, size: 0x8, addend: 0x0, symName: __ZNSt3__14pairINS_14__bit_iteratorINS_6vectorIbNS_9allocatorIbEEEELb1ELm0EEENS1_IS5_Lb0ELm0EEEEC1B8ne180100IS6_S7_Li0EEEOT_OT0_, symObjAddr: 0xC14C, symBinAddr: 0x10000EEA4, symSize: 0x3C }
  - { offsetInCU: 0x1C461, offset: 0x1C461, size: 0x8, addend: 0x0, symName: __ZNSt3__14pairINS_14__bit_iteratorINS_6vectorIbNS_9allocatorIbEEEELb1ELm0EEENS1_IS5_Lb0ELm0EEEEC2B8ne180100IS6_S7_Li0EEEOT_OT0_, symObjAddr: 0xC188, symBinAddr: 0x10000EEE0, symSize: 0x48 }
  - { offsetInCU: 0x1C4BF, offset: 0x1C4BF, size: 0x8, addend: 0x0, symName: __ZNSt3__118__unwrap_iter_implINS_14__bit_iteratorINS_6vectorIbNS_9allocatorIbEEEELb1ELm0EEELb0EE8__rewrapB8ne180100ES6_S6_, symObjAddr: 0xC244, symBinAddr: 0x10000EF9C, symSize: 0x2C }
  - { offsetInCU: 0x1C4EC, offset: 0x1C4EC, size: 0x8, addend: 0x0, symName: __ZNSt3__16vectorINS0_IbNS_9allocatorIbEEEENS1_IS3_EEE21_ConstructTransactionD2B8ne180100Ev, symObjAddr: 0xC270, symBinAddr: 0x10000EFC8, symSize: 0x20 }
  - { offsetInCU: 0x1C516, offset: 0x1C516, size: 0x8, addend: 0x0, symName: __ZNKSt3__16vectorINS0_IbNS_9allocatorIbEEEENS1_IS3_EEE11__recommendB8ne180100Em, symObjAddr: 0xC290, symBinAddr: 0x10000EFE8, symSize: 0xB4 }
  - { offsetInCU: 0x1C56A, offset: 0x1C56A, size: 0x8, addend: 0x0, symName: __ZNSt3__114__split_bufferINS_6vectorIbNS_9allocatorIbEEEERNS2_IS4_EEEC1EmmS6_, symObjAddr: 0xC344, symBinAddr: 0x10000F09C, symSize: 0x44 }
  - { offsetInCU: 0x1C5C0, offset: 0x1C5C0, size: 0x8, addend: 0x0, symName: __ZNSt3__114__split_bufferINS_6vectorIbNS_9allocatorIbEEEERNS2_IS4_EEED1Ev, symObjAddr: 0xC498, symBinAddr: 0x10000F1F0, symSize: 0x2C }
  - { offsetInCU: 0x1C5EC, offset: 0x1C5EC, size: 0x8, addend: 0x0, symName: __ZNKSt3__16vectorINS0_IbNS_9allocatorIbEEEENS1_IS3_EEE8max_sizeEv, symObjAddr: 0xC4C4, symBinAddr: 0x10000F21C, symSize: 0x60 }
  - { offsetInCU: 0x1C613, offset: 0x1C613, size: 0x8, addend: 0x0, symName: __ZNKSt3__16vectorINS0_IbNS_9allocatorIbEEEENS1_IS3_EEE20__throw_length_errorB8ne180100Ev, symObjAddr: 0xC524, symBinAddr: 0x10000F27C, symSize: 0x1C }
  - { offsetInCU: 0x1C643, offset: 0x1C643, size: 0x8, addend: 0x0, symName: __ZNSt3__116allocator_traitsINS_9allocatorINS_6vectorIbNS1_IbEEEEEEE8max_sizeB8ne180100IS5_vEEmRKS5_, symObjAddr: 0xC540, symBinAddr: 0x10000F298, symSize: 0x24 }
  - { offsetInCU: 0x1C671, offset: 0x1C671, size: 0x8, addend: 0x0, symName: __ZNKSt3__16vectorINS0_IbNS_9allocatorIbEEEENS1_IS3_EEE7__allocB8ne180100Ev, symObjAddr: 0xC564, symBinAddr: 0x10000F2BC, symSize: 0x28 }
  - { offsetInCU: 0x1C697, offset: 0x1C697, size: 0x8, addend: 0x0, symName: __ZNKSt3__19allocatorINS_6vectorIbNS0_IbEEEEE8max_sizeB8ne180100Ev, symObjAddr: 0xC58C, symBinAddr: 0x10000F2E4, symSize: 0x18 }
  - { offsetInCU: 0x1C6BD, offset: 0x1C6BD, size: 0x8, addend: 0x0, symName: __ZNKSt3__117__compressed_pairIPNS_6vectorIbNS_9allocatorIbEEEENS2_IS4_EEE6secondB8ne180100Ev, symObjAddr: 0xC5A4, symBinAddr: 0x10000F2FC, symSize: 0x24 }
  - { offsetInCU: 0x1C6E3, offset: 0x1C6E3, size: 0x8, addend: 0x0, symName: __ZNKSt3__122__compressed_pair_elemINS_9allocatorINS_6vectorIbNS1_IbEEEEEELi1ELb1EE5__getB8ne180100Ev, symObjAddr: 0xC5C8, symBinAddr: 0x10000F320, symSize: 0x14 }
  - { offsetInCU: 0x1C709, offset: 0x1C709, size: 0x8, addend: 0x0, symName: __ZNSt3__114__split_bufferINS_6vectorIbNS_9allocatorIbEEEERNS2_IS4_EEEC2EmmS6_, symObjAddr: 0xC5DC, symBinAddr: 0x10000F334, symSize: 0xE0 }
  - { offsetInCU: 0x1C77C, offset: 0x1C77C, size: 0x8, addend: 0x0, symName: __ZNSt3__117__compressed_pairIPNS_6vectorIbNS_9allocatorIbEEEERNS2_IS4_EEEC1B8ne180100IDnS7_EEOT_OT0_, symObjAddr: 0xC6BC, symBinAddr: 0x10000F414, symSize: 0x3C }
  - { offsetInCU: 0x1C7D4, offset: 0x1C7D4, size: 0x8, addend: 0x0, symName: __ZNSt3__114__split_bufferINS_6vectorIbNS_9allocatorIbEEEERNS2_IS4_EEE7__allocB8ne180100Ev, symObjAddr: 0xC738, symBinAddr: 0x10000F490, symSize: 0x28 }
  - { offsetInCU: 0x1C7FA, offset: 0x1C7FA, size: 0x8, addend: 0x0, symName: __ZNSt3__114__split_bufferINS_6vectorIbNS_9allocatorIbEEEERNS2_IS4_EEE9__end_capB8ne180100Ev, symObjAddr: 0xC760, symBinAddr: 0x10000F4B8, symSize: 0x28 }
  - { offsetInCU: 0x1C820, offset: 0x1C820, size: 0x8, addend: 0x0, symName: __ZNSt3__117__compressed_pairIPNS_6vectorIbNS_9allocatorIbEEEERNS2_IS4_EEEC2B8ne180100IDnS7_EEOT_OT0_, symObjAddr: 0xC788, symBinAddr: 0x10000F4E0, symSize: 0x48 }
  - { offsetInCU: 0x1C878, offset: 0x1C878, size: 0x8, addend: 0x0, symName: __ZNSt3__122__compressed_pair_elemIRNS_9allocatorINS_6vectorIbNS1_IbEEEEEELi1ELb0EEC2B8ne180100IS6_vEEOT_, symObjAddr: 0xC7D0, symBinAddr: 0x10000F528, symSize: 0x20 }
  - { offsetInCU: 0x1C8BA, offset: 0x1C8BA, size: 0x8, addend: 0x0, symName: __ZNSt3__19allocatorINS_6vectorIbNS0_IbEEEEE8allocateB8ne180100Em, symObjAddr: 0xC7F0, symBinAddr: 0x10000F548, symSize: 0x5C }
  - { offsetInCU: 0x1C8EE, offset: 0x1C8EE, size: 0x8, addend: 0x0, symName: __ZNSt3__117__compressed_pairIPNS_6vectorIbNS_9allocatorIbEEEERNS2_IS4_EEE6secondB8ne180100Ev, symObjAddr: 0xC84C, symBinAddr: 0x10000F5A4, symSize: 0x28 }
  - { offsetInCU: 0x1C914, offset: 0x1C914, size: 0x8, addend: 0x0, symName: __ZNSt3__122__compressed_pair_elemIRNS_9allocatorINS_6vectorIbNS1_IbEEEEEELi1ELb0EE5__getB8ne180100Ev, symObjAddr: 0xC874, symBinAddr: 0x10000F5CC, symSize: 0x18 }
  - { offsetInCU: 0x1C93A, offset: 0x1C93A, size: 0x8, addend: 0x0, symName: __ZNSt3__117__compressed_pairIPNS_6vectorIbNS_9allocatorIbEEEERNS2_IS4_EEE5firstB8ne180100Ev, symObjAddr: 0xC88C, symBinAddr: 0x10000F5E4, symSize: 0x24 }
  - { offsetInCU: 0x1C960, offset: 0x1C960, size: 0x8, addend: 0x0, symName: __ZNSt3__116reverse_iteratorIPNS_6vectorIbNS_9allocatorIbEEEEEC1B8ne180100ES5_, symObjAddr: 0xC9DC, symBinAddr: 0x10000F734, symSize: 0x34 }
  - { offsetInCU: 0x1C998, offset: 0x1C998, size: 0x8, addend: 0x0, symName: __ZNKSt3__116reverse_iteratorIPNS_6vectorIbNS_9allocatorIbEEEEE4baseB8ne180100Ev, symObjAddr: 0xCA10, symBinAddr: 0x10000F768, symSize: 0x18 }
  - { offsetInCU: 0x1C9BE, offset: 0x1C9BE, size: 0x8, addend: 0x0, symName: __ZNKSt3__16vectorINS0_IbNS_9allocatorIbEEEENS1_IS3_EEE14__annotate_newB8ne180100Em, symObjAddr: 0xCA64, symBinAddr: 0x10000F7BC, symSize: 0x14 }
  - { offsetInCU: 0x1C9F3, offset: 0x1C9F3, size: 0x8, addend: 0x0, symName: __ZNSt3__129_AllocatorDestroyRangeReverseINS_9allocatorINS_6vectorIbNS1_IbEEEEEENS_16reverse_iteratorIPS4_EEEC1B8ne180100ERS5_RS8_SB_, symObjAddr: 0xCAC4, symBinAddr: 0x10000F81C, symSize: 0x44 }
  - { offsetInCU: 0x1CA4A, offset: 0x1CA4A, size: 0x8, addend: 0x0, symName: __ZNSt3__116allocator_traitsINS_9allocatorINS_6vectorIbNS1_IbEEEEEEE9constructB8ne180100IS4_JS4_EvEEvRS5_PT_DpOT0_, symObjAddr: 0xCB50, symBinAddr: 0x10000F8A8, symSize: 0x34 }
  - { offsetInCU: 0x1CAA1, offset: 0x1CAA1, size: 0x8, addend: 0x0, symName: __ZNKSt3__116reverse_iteratorIPNS_6vectorIbNS_9allocatorIbEEEEEdeB8ne180100Ev, symObjAddr: 0xCBA8, symBinAddr: 0x10000F900, symSize: 0x28 }
  - { offsetInCU: 0x1CAD5, offset: 0x1CAD5, size: 0x8, addend: 0x0, symName: __ZNSt3__116reverse_iteratorIPNS_6vectorIbNS_9allocatorIbEEEEEppB8ne180100Ev, symObjAddr: 0xCBD0, symBinAddr: 0x10000F928, symSize: 0x20 }
  - { offsetInCU: 0x1CAFB, offset: 0x1CAFB, size: 0x8, addend: 0x0, symName: __ZNSt3__128__exception_guard_exceptionsINS_29_AllocatorDestroyRangeReverseINS_9allocatorINS_6vectorIbNS2_IbEEEEEENS_16reverse_iteratorIPS5_EEEEE10__completeB8ne180100Ev, symObjAddr: 0xCBF0, symBinAddr: 0x10000F948, symSize: 0x1C }
  - { offsetInCU: 0x1CB21, offset: 0x1CB21, size: 0x8, addend: 0x0, symName: __ZNSt3__128__exception_guard_exceptionsINS_29_AllocatorDestroyRangeReverseINS_9allocatorINS_6vectorIbNS2_IbEEEEEENS_16reverse_iteratorIPS5_EEEEED1B8ne180100Ev, symObjAddr: 0xCC0C, symBinAddr: 0x10000F964, symSize: 0x2C }
  - { offsetInCU: 0x1CB4B, offset: 0x1CB4B, size: 0x8, addend: 0x0, symName: __ZNSt3__128__exception_guard_exceptionsINS_29_AllocatorDestroyRangeReverseINS_9allocatorINS_6vectorIbNS2_IbEEEEEENS_16reverse_iteratorIPS5_EEEEEC1B8ne180100ESA_, symObjAddr: 0xCC38, symBinAddr: 0x10000F990, symSize: 0x34 }
  - { offsetInCU: 0x1CB84, offset: 0x1CB84, size: 0x8, addend: 0x0, symName: __ZNSt3__128__exception_guard_exceptionsINS_29_AllocatorDestroyRangeReverseINS_9allocatorINS_6vectorIbNS2_IbEEEEEENS_16reverse_iteratorIPS5_EEEEEC2B8ne180100ESA_, symObjAddr: 0xCC6C, symBinAddr: 0x10000F9C4, symSize: 0x30 }
  - { offsetInCU: 0x1CBBD, offset: 0x1CBBD, size: 0x8, addend: 0x0, symName: __ZNSt3__129_AllocatorDestroyRangeReverseINS_9allocatorINS_6vectorIbNS1_IbEEEEEENS_16reverse_iteratorIPS4_EEEC2B8ne180100ERS5_RS8_SB_, symObjAddr: 0xCC9C, symBinAddr: 0x10000F9F4, symSize: 0x38 }
  - { offsetInCU: 0x1CC14, offset: 0x1CC14, size: 0x8, addend: 0x0, symName: __ZNSt3__19allocatorINS_6vectorIbNS0_IbEEEEE9constructB8ne180100IS3_JS3_EEEvPT_DpOT0_, symObjAddr: 0xCCD4, symBinAddr: 0x10000FA2C, symSize: 0x30 }
  - { offsetInCU: 0x1CC6A, offset: 0x1CC6A, size: 0x8, addend: 0x0, symName: __ZNSt3__16vectorIbNS_9allocatorIbEEEC1B8ne180100EOS3_, symObjAddr: 0xCD04, symBinAddr: 0x10000FA5C, symSize: 0x34 }
  - { offsetInCU: 0x1CCA5, offset: 0x1CCA5, size: 0x8, addend: 0x0, symName: __ZNSt3__16vectorIbNS_9allocatorIbEEEC2B8ne180100EOS3_, symObjAddr: 0xCD38, symBinAddr: 0x10000FA90, symSize: 0x70 }
  - { offsetInCU: 0x1CCE5, offset: 0x1CCE5, size: 0x8, addend: 0x0, symName: __ZNSt3__119__to_address_helperINS_16reverse_iteratorIPNS_6vectorIbNS_9allocatorIbEEEEEEvE6__callB8ne180100ERKS7_, symObjAddr: 0xCDA8, symBinAddr: 0x10000FB00, symSize: 0x38 }
  - { offsetInCU: 0x1CD08, offset: 0x1CD08, size: 0x8, addend: 0x0, symName: __ZNKSt3__116reverse_iteratorIPNS_6vectorIbNS_9allocatorIbEEEEEptB8ne180100Ev, symObjAddr: 0xCDE0, symBinAddr: 0x10000FB38, symSize: 0x24 }
  - { offsetInCU: 0x1CD2E, offset: 0x1CD2E, size: 0x8, addend: 0x0, symName: __ZNSt3__128__exception_guard_exceptionsINS_29_AllocatorDestroyRangeReverseINS_9allocatorINS_6vectorIbNS2_IbEEEEEENS_16reverse_iteratorIPS5_EEEEED2B8ne180100Ev, symObjAddr: 0xCE04, symBinAddr: 0x10000FB5C, symSize: 0x50 }
  - { offsetInCU: 0x1CD58, offset: 0x1CD58, size: 0x8, addend: 0x0, symName: __ZNKSt3__129_AllocatorDestroyRangeReverseINS_9allocatorINS_6vectorIbNS1_IbEEEEEENS_16reverse_iteratorIPS4_EEEclB8ne180100Ev, symObjAddr: 0xCE54, symBinAddr: 0x10000FBAC, symSize: 0xB4 }
  - { offsetInCU: 0x1CD7F, offset: 0x1CD7F, size: 0x8, addend: 0x0, symName: __ZNSt3__116reverse_iteratorINS0_IPNS_6vectorIbNS_9allocatorIbEEEEEEEC1B8ne180100ES6_, symObjAddr: 0xCF78, symBinAddr: 0x10000FCD0, symSize: 0x3C }
  - { offsetInCU: 0x1CDB7, offset: 0x1CDB7, size: 0x8, addend: 0x0, symName: __ZNSt3__116reverse_iteratorINS0_IPNS_6vectorIbNS_9allocatorIbEEEEEEEppB8ne180100Ev, symObjAddr: 0xD038, symBinAddr: 0x10000FD90, symSize: 0x30 }
  - { offsetInCU: 0x1CDDD, offset: 0x1CDDD, size: 0x8, addend: 0x0, symName: __ZNKSt3__116reverse_iteratorINS0_IPNS_6vectorIbNS_9allocatorIbEEEEEEE4baseB8ne180100Ev, symObjAddr: 0xD068, symBinAddr: 0x10000FDC0, symSize: 0x24 }
  - { offsetInCU: 0x1CE08, offset: 0x1CE08, size: 0x8, addend: 0x0, symName: __ZNSt3__119__to_address_helperINS_16reverse_iteratorINS1_IPNS_6vectorIbNS_9allocatorIbEEEEEEEEvE6__callB8ne180100ERKS8_, symObjAddr: 0xD08C, symBinAddr: 0x10000FDE4, symSize: 0x38 }
  - { offsetInCU: 0x1CE2B, offset: 0x1CE2B, size: 0x8, addend: 0x0, symName: __ZNKSt3__116reverse_iteratorINS0_IPNS_6vectorIbNS_9allocatorIbEEEEEEEptB8ne180100Ev, symObjAddr: 0xD0C4, symBinAddr: 0x10000FE1C, symSize: 0x24 }
  - { offsetInCU: 0x1CE51, offset: 0x1CE51, size: 0x8, addend: 0x0, symName: __ZNKSt3__116reverse_iteratorINS0_IPNS_6vectorIbNS_9allocatorIbEEEEEEEdeB8ne180100Ev, symObjAddr: 0xD0E8, symBinAddr: 0x10000FE40, symSize: 0x34 }
  - { offsetInCU: 0x1CE85, offset: 0x1CE85, size: 0x8, addend: 0x0, symName: __ZNSt3__116reverse_iteratorIPNS_6vectorIbNS_9allocatorIbEEEEEmmB8ne180100Ev, symObjAddr: 0xD11C, symBinAddr: 0x10000FE74, symSize: 0x20 }
  - { offsetInCU: 0x1CEAB, offset: 0x1CEAB, size: 0x8, addend: 0x0, symName: __ZNSt3__116reverse_iteratorINS0_IPNS_6vectorIbNS_9allocatorIbEEEEEEEC2B8ne180100ES6_, symObjAddr: 0xD13C, symBinAddr: 0x10000FE94, symSize: 0x2C }
  - { offsetInCU: 0x1CEE3, offset: 0x1CEE3, size: 0x8, addend: 0x0, symName: __ZNSt3__116reverse_iteratorIPNS_6vectorIbNS_9allocatorIbEEEEEC2B8ne180100ES5_, symObjAddr: 0xD168, symBinAddr: 0x10000FEC0, symSize: 0x28 }
  - { offsetInCU: 0x1CF1B, offset: 0x1CF1B, size: 0x8, addend: 0x0, symName: __ZNSt3__114__split_bufferINS_6vectorIbNS_9allocatorIbEEEERNS2_IS4_EEED2Ev, symObjAddr: 0xD190, symBinAddr: 0x10000FEE8, symSize: 0x8C }
  - { offsetInCU: 0x1CF47, offset: 0x1CF47, size: 0x8, addend: 0x0, symName: __ZNSt3__114__split_bufferINS_6vectorIbNS_9allocatorIbEEEERNS2_IS4_EEE5clearB8ne180100Ev, symObjAddr: 0xD21C, symBinAddr: 0x10000FF74, symSize: 0x28 }
  - { offsetInCU: 0x1CF6D, offset: 0x1CF6D, size: 0x8, addend: 0x0, symName: __ZNKSt3__114__split_bufferINS_6vectorIbNS_9allocatorIbEEEERNS2_IS4_EEE8capacityB8ne180100Ev, symObjAddr: 0xD244, symBinAddr: 0x10000FF9C, symSize: 0x40 }
  - { offsetInCU: 0x1CF93, offset: 0x1CF93, size: 0x8, addend: 0x0, symName: __ZNSt3__114__split_bufferINS_6vectorIbNS_9allocatorIbEEEERNS2_IS4_EEE17__destruct_at_endB8ne180100EPS4_, symObjAddr: 0xD284, symBinAddr: 0x10000FFDC, symSize: 0x2C }
  - { offsetInCU: 0x1CFC7, offset: 0x1CFC7, size: 0x8, addend: 0x0, symName: __ZNSt3__114__split_bufferINS_6vectorIbNS_9allocatorIbEEEERNS2_IS4_EEE17__destruct_at_endB8ne180100EPS4_NS_17integral_constantIbLb0EEE, symObjAddr: 0xD2B0, symBinAddr: 0x100010008, symSize: 0x80 }
  - { offsetInCU: 0x1D006, offset: 0x1D006, size: 0x8, addend: 0x0, symName: __ZNKSt3__114__split_bufferINS_6vectorIbNS_9allocatorIbEEEERNS2_IS4_EEE9__end_capB8ne180100Ev, symObjAddr: 0xD330, symBinAddr: 0x100010088, symSize: 0x28 }
  - { offsetInCU: 0x1D02C, offset: 0x1D02C, size: 0x8, addend: 0x0, symName: __ZNKSt3__117__compressed_pairIPNS_6vectorIbNS_9allocatorIbEEEERNS2_IS4_EEE5firstB8ne180100Ev, symObjAddr: 0xD358, symBinAddr: 0x1000100B0, symSize: 0x24 }
  - { offsetInCU: 0x1D052, offset: 0x1D052, size: 0x8, addend: 0x0, symName: __ZNSt3__111char_traitsIcE4findB8ne180100EPKcmRS2_, symObjAddr: 0xD458, symBinAddr: 0x1000101B0, symSize: 0x70 }
  - { offsetInCU: 0x1D091, offset: 0x1D091, size: 0x8, addend: 0x0, symName: __ZNSt3__112basic_stringIcNS_11char_traitsIcEENS_9allocatorIcEEE13__fits_in_ssoB8ne180100Em, symObjAddr: 0xD508, symBinAddr: 0x100010260, symSize: 0x20 }
  - { offsetInCU: 0x1D0B5, offset: 0x1D0B5, size: 0x8, addend: 0x0, symName: __ZNSt3__19allocatorIcEC1B8ne180100Ev, symObjAddr: 0xD528, symBinAddr: 0x100010280, symSize: 0x2C }
  - { offsetInCU: 0x1D0DF, offset: 0x1D0DF, size: 0x8, addend: 0x0, symName: __ZNKSt3__16vectorINS0_IiNS_9allocatorIiEEEENS1_IS3_EEE11__make_iterB8ne180100EPKS3_, symObjAddr: 0xD554, symBinAddr: 0x1000102AC, symSize: 0x30 }
  - { offsetInCU: 0x1D114, offset: 0x1D114, size: 0x8, addend: 0x0, symName: __ZNSt3__111__wrap_iterIPKNS_6vectorIiNS_9allocatorIiEEEEEC1B8ne180100ES6_, symObjAddr: 0xD584, symBinAddr: 0x1000102DC, symSize: 0x34 }
  - { offsetInCU: 0x1D14C, offset: 0x1D14C, size: 0x8, addend: 0x0, symName: __ZNSt3__111__wrap_iterIPKNS_6vectorIiNS_9allocatorIiEEEEEC2B8ne180100ES6_, symObjAddr: 0xD5B8, symBinAddr: 0x100010310, symSize: 0x20 }
  - { offsetInCU: 0x1D184, offset: 0x1D184, size: 0x8, addend: 0x0, symName: __ZNKSt3__16vectorIiNS_9allocatorIiEEE11__make_iterB8ne180100EPKi, symObjAddr: 0xD5D8, symBinAddr: 0x100010330, symSize: 0x30 }
  - { offsetInCU: 0x1D1B9, offset: 0x1D1B9, size: 0x8, addend: 0x0, symName: __ZNSt3__111__wrap_iterIPKiEC1B8ne180100ES2_, symObjAddr: 0xD608, symBinAddr: 0x100010360, symSize: 0x34 }
  - { offsetInCU: 0x1D1F1, offset: 0x1D1F1, size: 0x8, addend: 0x0, symName: __ZNSt3__111__wrap_iterIPKiEC2B8ne180100ES2_, symObjAddr: 0xD63C, symBinAddr: 0x100010394, symSize: 0x20 }
  - { offsetInCU: 0x1D229, offset: 0x1D229, size: 0x8, addend: 0x0, symName: __ZNSt3__16vectorINS0_IiNS_9allocatorIiEEEENS1_IS3_EEE11__make_iterB8ne180100EPS3_, symObjAddr: 0xD65C, symBinAddr: 0x1000103B4, symSize: 0x30 }
  - { offsetInCU: 0x1D25E, offset: 0x1D25E, size: 0x8, addend: 0x0, symName: __ZNSt3__111__wrap_iterIPNS_6vectorIiNS_9allocatorIiEEEEEC1B8ne180100ES5_, symObjAddr: 0xD68C, symBinAddr: 0x1000103E4, symSize: 0x34 }
  - { offsetInCU: 0x1D296, offset: 0x1D296, size: 0x8, addend: 0x0, symName: __ZNSt3__111__wrap_iterIPNS_6vectorIiNS_9allocatorIiEEEEEC2B8ne180100ES5_, symObjAddr: 0xD6C0, symBinAddr: 0x100010418, symSize: 0x20 }
  - { offsetInCU: 0x1D2CE, offset: 0x1D2CE, size: 0x8, addend: 0x0, symName: __ZNSt3__16vectorIiNS_9allocatorIiEEE11__make_iterB8ne180100EPi, symObjAddr: 0xD6E0, symBinAddr: 0x100010438, symSize: 0x30 }
  - { offsetInCU: 0x1D303, offset: 0x1D303, size: 0x8, addend: 0x0, symName: __ZNSt3__111__wrap_iterIPiEC1B8ne180100ES1_, symObjAddr: 0xD710, symBinAddr: 0x100010468, symSize: 0x34 }
  - { offsetInCU: 0x1D33B, offset: 0x1D33B, size: 0x8, addend: 0x0, symName: __ZNSt3__111__wrap_iterIPiEC2B8ne180100ES1_, symObjAddr: 0xD744, symBinAddr: 0x10001049C, symSize: 0x20 }
  - { offsetInCU: 0x1D373, offset: 0x1D373, size: 0x8, addend: 0x0, symName: __ZNKSt3__111__wrap_iterIPiEdeB8ne180100Ev, symObjAddr: 0xD8DC, symBinAddr: 0x100010634, symSize: 0x18 }
  - { offsetInCU: 0x1D399, offset: 0x1D399, size: 0x8, addend: 0x0, symName: __ZNSt3__111__wrap_iterIPiEppB8ne180100Ev, symObjAddr: 0xD8F4, symBinAddr: 0x10001064C, symSize: 0x20 }
  - { offsetInCU: 0x1D3BF, offset: 0x1D3BF, size: 0x8, addend: 0x0, symName: __ZNKSt3__111__wrap_iterIPiE4baseB8ne180100Ev, symObjAddr: 0xD914, symBinAddr: 0x10001066C, symSize: 0x18 }
  - { offsetInCU: 0x1D3E5, offset: 0x1D3E5, size: 0x8, addend: 0x0, symName: __ZNSt3__16vectorINS0_IbNS_9allocatorIbEEEENS1_IS3_EEE19__copy_assign_allocB8ne180100ERKS5_, symObjAddr: 0xD92C, symBinAddr: 0x100010684, symSize: 0x2C }
  - { offsetInCU: 0x1D41A, offset: 0x1D41A, size: 0x8, addend: 0x0, symName: __ZNSt3__16vectorINS0_IbNS_9allocatorIbEEEENS1_IS3_EEE6assignIPS3_Li0EEEvT_S8_, symObjAddr: 0xD958, symBinAddr: 0x1000106B0, symSize: 0x5C }
  - { offsetInCU: 0x1D46E, offset: 0x1D46E, size: 0x8, addend: 0x0, symName: __ZNSt3__16vectorINS0_IbNS_9allocatorIbEEEENS1_IS3_EEE19__copy_assign_allocB8ne180100ERKS5_NS_17integral_constantIbLb0EEE, symObjAddr: 0xD9B4, symBinAddr: 0x10001070C, symSize: 0x14 }
  - { offsetInCU: 0x1D4AA, offset: 0x1D4AA, size: 0x8, addend: 0x0, symName: __ZNSt3__16vectorINS0_IbNS_9allocatorIbEEEENS1_IS3_EEE18__assign_with_sizeB8ne180100IPS3_S7_EEvT_T0_l, symObjAddr: 0xD9C8, symBinAddr: 0x100010720, symSize: 0x164 }
  - { offsetInCU: 0x1D559, offset: 0x1D559, size: 0x8, addend: 0x0, symName: __ZNSt3__16vectorINS0_IbNS_9allocatorIbEEEENS1_IS3_EEE18__construct_at_endIPS3_S7_EEvT_T0_m, symObjAddr: 0xDBCC, symBinAddr: 0x100010924, symSize: 0x8C }
  - { offsetInCU: 0x1D5CE, offset: 0x1D5CE, size: 0x8, addend: 0x0, symName: __ZNSt3__16vectorINS0_IbNS_9allocatorIbEEEENS1_IS3_EEE17__destruct_at_endB8ne180100EPS3_, symObjAddr: 0xDC9C, symBinAddr: 0x1000109F4, symSize: 0x4C }
  - { offsetInCU: 0x1D612, offset: 0x1D612, size: 0x8, addend: 0x0, symName: __ZNSt3__16vectorINS0_IbNS_9allocatorIbEEEENS1_IS3_EEE13__vdeallocateEv, symObjAddr: 0xDCE8, symBinAddr: 0x100010A40, symSize: 0x94 }
  - { offsetInCU: 0x1D639, offset: 0x1D639, size: 0x8, addend: 0x0, symName: __ZNSt3__16vectorINS0_IbNS_9allocatorIbEEEENS1_IS3_EEE11__vallocateB8ne180100Em, symObjAddr: 0xDD7C, symBinAddr: 0x100010AD4, symSize: 0xB4 }
  - { offsetInCU: 0x1D69B, offset: 0x1D69B, size: 0x8, addend: 0x0, symName: __ZNSt3__14pairIPNS_6vectorIbNS_9allocatorIbEEEES5_EC1B8ne180100IS5_S5_Li0EEEOT_OT0_, symObjAddr: 0xE104, symBinAddr: 0x100010E5C, symSize: 0x3C }
  - { offsetInCU: 0x1D6F9, offset: 0x1D6F9, size: 0x8, addend: 0x0, symName: __ZNSt3__14pairIPNS_6vectorIbNS_9allocatorIbEEEES5_EC2B8ne180100IS5_S5_Li0EEEOT_OT0_, symObjAddr: 0xE140, symBinAddr: 0x100010E98, symSize: 0x34 }
  - { offsetInCU: 0x1D757, offset: 0x1D757, size: 0x8, addend: 0x0, symName: __ZNSt3__129_AllocatorDestroyRangeReverseINS_9allocatorINS_6vectorIbNS1_IbEEEEEEPS4_EC1B8ne180100ERS5_RS6_S9_, symObjAddr: 0xE1C0, symBinAddr: 0x100010F18, symSize: 0x44 }
  - { offsetInCU: 0x1D7AE, offset: 0x1D7AE, size: 0x8, addend: 0x0, symName: __ZNSt3__116allocator_traitsINS_9allocatorINS_6vectorIbNS1_IbEEEEEEE9constructB8ne180100IS4_JRS4_EvEEvRS5_PT_DpOT0_, symObjAddr: 0xE204, symBinAddr: 0x100010F5C, symSize: 0x34 }
  - { offsetInCU: 0x1D805, offset: 0x1D805, size: 0x8, addend: 0x0, symName: __ZNSt3__128__exception_guard_exceptionsINS_29_AllocatorDestroyRangeReverseINS_9allocatorINS_6vectorIbNS2_IbEEEEEEPS5_EEE10__completeB8ne180100Ev, symObjAddr: 0xE238, symBinAddr: 0x100010F90, symSize: 0x1C }
  - { offsetInCU: 0x1D82B, offset: 0x1D82B, size: 0x8, addend: 0x0, symName: __ZNSt3__128__exception_guard_exceptionsINS_29_AllocatorDestroyRangeReverseINS_9allocatorINS_6vectorIbNS2_IbEEEEEEPS5_EEED1B8ne180100Ev, symObjAddr: 0xE254, symBinAddr: 0x100010FAC, symSize: 0x2C }
  - { offsetInCU: 0x1D855, offset: 0x1D855, size: 0x8, addend: 0x0, symName: __ZNSt3__128__exception_guard_exceptionsINS_29_AllocatorDestroyRangeReverseINS_9allocatorINS_6vectorIbNS2_IbEEEEEEPS5_EEEC1B8ne180100ES8_, symObjAddr: 0xE280, symBinAddr: 0x100010FD8, symSize: 0x34 }
  - { offsetInCU: 0x1D88E, offset: 0x1D88E, size: 0x8, addend: 0x0, symName: __ZNSt3__128__exception_guard_exceptionsINS_29_AllocatorDestroyRangeReverseINS_9allocatorINS_6vectorIbNS2_IbEEEEEEPS5_EEEC2B8ne180100ES8_, symObjAddr: 0xE2B4, symBinAddr: 0x10001100C, symSize: 0x30 }
  - { offsetInCU: 0x1D8C7, offset: 0x1D8C7, size: 0x8, addend: 0x0, symName: __ZNSt3__129_AllocatorDestroyRangeReverseINS_9allocatorINS_6vectorIbNS1_IbEEEEEEPS4_EC2B8ne180100ERS5_RS6_S9_, symObjAddr: 0xE2E4, symBinAddr: 0x10001103C, symSize: 0x38 }
  - { offsetInCU: 0x1D91E, offset: 0x1D91E, size: 0x8, addend: 0x0, symName: __ZNSt3__19allocatorINS_6vectorIbNS0_IbEEEEE9constructB8ne180100IS3_JRS3_EEEvPT_DpOT0_, symObjAddr: 0xE31C, symBinAddr: 0x100011074, symSize: 0x30 }
  - { offsetInCU: 0x1D974, offset: 0x1D974, size: 0x8, addend: 0x0, symName: __ZNSt3__128__exception_guard_exceptionsINS_29_AllocatorDestroyRangeReverseINS_9allocatorINS_6vectorIbNS2_IbEEEEEEPS5_EEED2B8ne180100Ev, symObjAddr: 0xE34C, symBinAddr: 0x1000110A4, symSize: 0x50 }
  - { offsetInCU: 0x1D99E, offset: 0x1D99E, size: 0x8, addend: 0x0, symName: __ZNKSt3__129_AllocatorDestroyRangeReverseINS_9allocatorINS_6vectorIbNS1_IbEEEEEEPS4_EclB8ne180100Ev, symObjAddr: 0xE39C, symBinAddr: 0x1000110F4, symSize: 0x68 }
  - { offsetInCU: 0x1D9C4, offset: 0x1D9C4, size: 0x8, addend: 0x0, symName: __ZNSt3__118__unwrap_iter_implIPNS_6vectorIbNS_9allocatorIbEEEELb1EE8__unwrapB8ne180100ES5_, symObjAddr: 0xE474, symBinAddr: 0x1000111CC, symSize: 0x24 }
  - { offsetInCU: 0x1D9E7, offset: 0x1D9E7, size: 0x8, addend: 0x0, symName: __ZNSt3__118__unwrap_iter_implIPNS_6vectorIbNS_9allocatorIbEEEELb1EE8__rewrapB8ne180100ES5_S5_, symObjAddr: 0xE498, symBinAddr: 0x1000111F0, symSize: 0x58 }
  - { offsetInCU: 0x1DA18, offset: 0x1DA18, size: 0x8, addend: 0x0, symName: __ZNKSt3__111__copy_loopINS_17_ClassicAlgPolicyEEclB8ne180100IPNS_6vectorIbNS_9allocatorIbEEEES8_S8_EENS_4pairIT_T1_EESA_T0_SB_, symObjAddr: 0xE5E8, symBinAddr: 0x100011340, symSize: 0x88 }
  - { offsetInCU: 0x1DA83, offset: 0x1DA83, size: 0x8, addend: 0x0, symName: __ZNSt3__16vectorIbNS_9allocatorIbEEEaSERKS3_, symObjAddr: 0xE69C, symBinAddr: 0x1000113F4, symSize: 0x100 }
  - { offsetInCU: 0x1DAB9, offset: 0x1DAB9, size: 0x8, addend: 0x0, symName: __ZNSt3__16vectorIbNS_9allocatorIbEEE19__copy_assign_allocB8ne180100ERKS3_, symObjAddr: 0xE79C, symBinAddr: 0x1000114F4, symSize: 0x2C }
  - { offsetInCU: 0x1DAEE, offset: 0x1DAEE, size: 0x8, addend: 0x0, symName: __ZNSt3__16vectorIbNS_9allocatorIbEEE13__vdeallocateEv, symObjAddr: 0xE7C8, symBinAddr: 0x100011520, symSize: 0x88 }
  - { offsetInCU: 0x1DB15, offset: 0x1DB15, size: 0x8, addend: 0x0, symName: __ZNSt3__16vectorIbNS_9allocatorIbEEE19__copy_assign_allocB8ne180100ERKS3_NS_17integral_constantIbLb0EEE, symObjAddr: 0xE890, symBinAddr: 0x1000115E8, symSize: 0x14 }
  - { offsetInCU: 0x1DB6A, offset: 0x1DB6A, size: 0x8, addend: 0x0, symName: __ZNKSt3__114__copy_trivialclB8ne180100ImmLi0EEENS_4pairIPT_PT0_EES4_S4_S6_, symObjAddr: 0xEA40, symBinAddr: 0x100011798, symSize: 0x48 }
  - { offsetInCU: 0x1DBDC, offset: 0x1DBDC, size: 0x8, addend: 0x0, symName: __ZNSt3__14pairIPmS1_EC1B8ne180100IRS1_S1_Li0EEEOT_OT0_, symObjAddr: 0xEC68, symBinAddr: 0x1000119C0, symSize: 0x3C }
  - { offsetInCU: 0x1DC3A, offset: 0x1DC3A, size: 0x8, addend: 0x0, symName: __ZNSt3__14pairIPmS1_EC2B8ne180100IRS1_S1_Li0EEEOT_OT0_, symObjAddr: 0xECA4, symBinAddr: 0x1000119FC, symSize: 0x34 }
  - { offsetInCU: 0x1DC98, offset: 0x1DC98, size: 0x8, addend: 0x0, symName: __ZNSt3__118__unwrap_iter_implIPmLb1EE8__unwrapB8ne180100ES1_, symObjAddr: 0xECD8, symBinAddr: 0x100011A30, symSize: 0x24 }
  - { offsetInCU: 0x1DCBB, offset: 0x1DCBB, size: 0x8, addend: 0x0, symName: __ZNSt3__14pairIPmS1_EC1B8ne180100IS1_S1_Li0EEEOT_OT0_, symObjAddr: 0xED10, symBinAddr: 0x100011A68, symSize: 0x3C }
  - { offsetInCU: 0x1DD19, offset: 0x1DD19, size: 0x8, addend: 0x0, symName: __ZNSt3__14pairIPmS1_EC2B8ne180100IS1_S1_Li0EEEOT_OT0_, symObjAddr: 0xED4C, symBinAddr: 0x100011AA4, symSize: 0x34 }
  - { offsetInCU: 0x1DD77, offset: 0x1DD77, size: 0x8, addend: 0x0, symName: __ZNSt3__118__unwrap_iter_implIPmLb1EE8__rewrapB8ne180100ES1_S1_, symObjAddr: 0xED80, symBinAddr: 0x100011AD8, symSize: 0x50 }
  - { offsetInCU: 0x1DDA8, offset: 0x1DDA8, size: 0x8, addend: 0x0, symName: __ZNKSt3__16vectorINS0_IbNS_9allocatorIbEEEENS1_IS3_EEE17__annotate_shrinkB8ne180100Em, symObjAddr: 0xEDD0, symBinAddr: 0x100011B28, symSize: 0x14 }
  - { offsetInCU: 0x1DDDD, offset: 0x1DDDD, size: 0x8, addend: 0x0, symName: __ZNSt3__16vectorINS0_IbNS_9allocatorIbEEEENS1_IS3_EEE11__make_iterB8ne180100EPS3_, symObjAddr: 0xEE0C, symBinAddr: 0x100011B64, symSize: 0x30 }
  - { offsetInCU: 0x1DE12, offset: 0x1DE12, size: 0x8, addend: 0x0, symName: __ZNSt3__111__wrap_iterIPNS_6vectorIbNS_9allocatorIbEEEEEC1B8ne180100ES5_, symObjAddr: 0xEE3C, symBinAddr: 0x100011B94, symSize: 0x34 }
  - { offsetInCU: 0x1DE4A, offset: 0x1DE4A, size: 0x8, addend: 0x0, symName: __ZNSt3__111__wrap_iterIPNS_6vectorIbNS_9allocatorIbEEEEEC2B8ne180100ES5_, symObjAddr: 0xEE70, symBinAddr: 0x100011BC8, symSize: 0x20 }
  - { offsetInCU: 0x1DE82, offset: 0x1DE82, size: 0x8, addend: 0x0, symName: __ZNKSt3__16vectorIbNS_9allocatorIbEEE11__make_iterB8ne180100Em, symObjAddr: 0xEE90, symBinAddr: 0x100011BE8, symSize: 0x5C }
  - { offsetInCU: 0x1DEB7, offset: 0x1DEB7, size: 0x8, addend: 0x0, symName: __ZNSt3__114__bit_iteratorINS_6vectorIbNS_9allocatorIbEEEELb1ELm0EEC1B8ne180100EPKmj, symObjAddr: 0xEEEC, symBinAddr: 0x100011C44, symSize: 0x3C }
  - { offsetInCU: 0x1DEFF, offset: 0x1DEFF, size: 0x8, addend: 0x0, symName: __ZNSt3__114__bit_iteratorINS_6vectorIbNS_9allocatorIbEEEELb1ELm0EEC2B8ne180100EPKmj, symObjAddr: 0xEF28, symBinAddr: 0x100011C80, symSize: 0x2C }
  - { offsetInCU: 0x1DF47, offset: 0x1DF47, size: 0x8, addend: 0x0, symName: __ZNSt3__121__bit_const_referenceINS_6vectorIbNS_9allocatorIbEEEEEC1B8ne180100EPKmm, symObjAddr: 0xEFB8, symBinAddr: 0x100011D10, symSize: 0x3C }
  - { offsetInCU: 0x1DF8D, offset: 0x1DF8D, size: 0x8, addend: 0x0, symName: __ZNSt3__121__bit_const_referenceINS_6vectorIbNS_9allocatorIbEEEEEC2B8ne180100EPKmm, symObjAddr: 0xEFF4, symBinAddr: 0x100011D4C, symSize: 0x2C }
  - { offsetInCU: 0x1CDC, offset: 0x1FF6A, size: 0x8, addend: 0x0, symName: __ZNSt3__115__equal_alignedB8ne180100INS_6vectorIbNS_9allocatorIbEEEELb1ELb1EEEbNS_14__bit_iteratorIT_XT0_EXLi0EEEES7_NS5_IS6_XT1_EXLi0EEEE, symObjAddr: 0x3978, symBinAddr: 0x100012F5C, symSize: 0x240 }
  - { offsetInCU: 0x1DD3, offset: 0x20061, size: 0x8, addend: 0x0, symName: __ZNSt3__117__equal_unalignedB8ne180100INS_6vectorIbNS_9allocatorIbEEEELb1ELb1EEEbNS_14__bit_iteratorIT_XT0_EXLi0EEEES7_NS5_IS6_XT1_EXLi0EEEE, symObjAddr: 0x3BB8, symBinAddr: 0x10001319C, symSize: 0x56C }
  - { offsetInCU: 0x1F58, offset: 0x201E6, size: 0x8, addend: 0x0, symName: __ZNSt3__18__fill_nB8ne180100ILb1ENS_6vectorIbNS_9allocatorIbEEEEEEvNS_14__bit_iteratorIT0_Lb0EXLi0EEEENS6_9size_typeE, symObjAddr: 0x4818, symBinAddr: 0x100013C80, symSize: 0x160 }
  - { offsetInCU: 0x201D, offset: 0x202AB, size: 0x8, addend: 0x0, symName: __ZNSt3__18__fill_nB8ne180100ILb0ENS_6vectorIbNS_9allocatorIbEEEEEEvNS_14__bit_iteratorIT0_Lb0EXLi0EEEENS6_9size_typeE, symObjAddr: 0x4978, symBinAddr: 0x100013DE0, symSize: 0x15C }
  - { offsetInCU: 0x2C25, offset: 0x20EB3, size: 0x8, addend: 0x0, symName: __ZNSt3__1eqB8ne180100INS_6vectorIbNS_9allocatorIbEEEENS2_IS4_EEEEbRKNS1_IT_T0_EESA_, symObjAddr: 0x7D4, symBinAddr: 0x100012584, symSize: 0x9C }
  - { offsetInCU: 0x2C83, offset: 0x20F11, size: 0x8, addend: 0x0, symName: __ZNSt3__122__make_exception_guardB8ne180100INS_6vectorINS1_IbNS_9allocatorIbEEEENS2_IS4_EEE16__destroy_vectorEEENS_28__exception_guard_exceptionsIT_EES9_, symObjAddr: 0xF28, symBinAddr: 0x100012A60, symSize: 0x40 }
  - { offsetInCU: 0x2D2E, offset: 0x20FBC, size: 0x8, addend: 0x0, symName: __ZNSt3__15equalB8ne180100INS_11__wrap_iterIPKNS_6vectorIbNS_9allocatorIbEEEEEES8_EEbT_S9_T0_, symObjAddr: 0x35AC, symBinAddr: 0x100012B90, symSize: 0x50 }
  - { offsetInCU: 0x2D88, offset: 0x21016, size: 0x8, addend: 0x0, symName: __ZNSt3__15equalB8ne180100INS_11__wrap_iterIPKNS_6vectorIbNS_9allocatorIbEEEEEES8_NS_10__equal_toEEEbT_SA_T0_T1_, symObjAddr: 0x365C, symBinAddr: 0x100012C40, symSize: 0x74 }
  - { offsetInCU: 0x2DF9, offset: 0x21087, size: 0x8, addend: 0x0, symName: __ZNSt3__117__equal_iter_implB8ne180100IPKNS_6vectorIbNS_9allocatorIbEEEES6_NS_10__equal_toEEEbT_S8_T0_RT1_, symObjAddr: 0x36D0, symBinAddr: 0x100012CB4, symSize: 0xAC }
  - { offsetInCU: 0x2E6A, offset: 0x210F8, size: 0x8, addend: 0x0, symName: __ZNSt3__113__unwrap_iterB8ne180100INS_11__wrap_iterIPKNS_6vectorIbNS_9allocatorIbEEEEEENS_18__unwrap_iter_implIS8_Lb1EEELi0EEEDTclsrT0_8__unwrapclsr3stdE7declvalIT_EEEESC_, symObjAddr: 0x377C, symBinAddr: 0x100012D60, symSize: 0x2C }
  - { offsetInCU: 0x2EE9, offset: 0x21177, size: 0x8, addend: 0x0, symName: __ZNSt3__1eqB8ne180100IbNS_9allocatorIbEEEEbRKNS_6vectorIT_T0_EES8_, symObjAddr: 0x37DC, symBinAddr: 0x100012DC0, symSize: 0xB4 }
  - { offsetInCU: 0x2F47, offset: 0x211D5, size: 0x8, addend: 0x0, symName: __ZNSt3__15equalB8ne180100INS_6vectorIbNS_9allocatorIbEEEELb1ELb1EEEbNS_14__bit_iteratorIT_XT0_EXLi0EEEES7_NS5_IS6_XT1_EXLi0EEEE, symObjAddr: 0x3890, symBinAddr: 0x100012E74, symSize: 0xE8 }
  - { offsetInCU: 0x2FB0, offset: 0x2123E, size: 0x8, addend: 0x0, symName: __ZNSt3__1miB8ne180100ERKNS_14__bit_iteratorINS_6vectorIbNS_9allocatorIbEEEELb1ELm0EEES7_, symObjAddr: 0x4124, symBinAddr: 0x100013708, symSize: 0x48 }
  - { offsetInCU: 0x2FED, offset: 0x2127B, size: 0x8, addend: 0x0, symName: __ZNSt3__13minB8ne180100IlEERKT_S3_S3_, symObjAddr: 0x416C, symBinAddr: 0x100013750, symSize: 0x2C }
  - { offsetInCU: 0x3030, offset: 0x212BE, size: 0x8, addend: 0x0, symName: __ZNSt3__13minB8ne180100IlNS_6__lessIvvEEEERKT_S5_S5_T0_, symObjAddr: 0x4198, symBinAddr: 0x10001377C, symSize: 0x54 }
  - { offsetInCU: 0x30DD, offset: 0x2136B, size: 0x8, addend: 0x0, symName: __ZNSt3__112__to_addressB8ne180100INS_11__wrap_iterIPKNS_6vectorIbNS_9allocatorIbEEEEEEvEEu7__decayIDTclsr19__to_address_helperIT_EE6__callclsr3stdE7declvalIRKS9_EEEEESB_, symObjAddr: 0x4248, symBinAddr: 0x10001382C, symSize: 0x24 }
  - { offsetInCU: 0x31B8, offset: 0x21446, size: 0x8, addend: 0x0, symName: __ZNSt3__112__to_addressB8ne180100IKNS_6vectorIbNS_9allocatorIbEEEEEEPT_S7_, symObjAddr: 0x42C8, symBinAddr: 0x1000138AC, symSize: 0x14 }
  - { offsetInCU: 0x31ED, offset: 0x2147B, size: 0x8, addend: 0x0, symName: __ZNSt3__16fill_nB8ne180100INS_6vectorIbNS_9allocatorIbEEEEEEvNS_14__bit_iteratorIT_Lb0EXLi0EEEENS6_9size_typeEb, symObjAddr: 0x4784, symBinAddr: 0x100013BEC, symSize: 0x94 }
  - { offsetInCU: 0x323B, offset: 0x214C9, size: 0x8, addend: 0x0, symName: __ZNSt3__16fill_nB8ne180100IPmmmEET_S2_T0_RKT1_, symObjAddr: 0x4AD4, symBinAddr: 0x100013F3C, symSize: 0x44 }
  - { offsetInCU: 0x329E, offset: 0x2152C, size: 0x8, addend: 0x0, symName: __ZNSt3__18__fill_nB8ne180100IPmmmEET_S2_T0_RKT1_, symObjAddr: 0x4B2C, symBinAddr: 0x100013F80, symSize: 0x64 }
  - { offsetInCU: 0x3301, offset: 0x2158F, size: 0x8, addend: 0x0, symName: __ZNSt3__121__convert_to_integralB8ne180100Em, symObjAddr: 0x4B90, symBinAddr: 0x100013FE4, symSize: 0x14 }
  - { offsetInCU: 0x5493, offset: 0x23721, size: 0x8, addend: 0x0, symName: __ZN15CelestialObjectC2ERKNSt3__16vectorINS1_IbNS0_9allocatorIbEEEENS2_IS4_EEEE10ObjectTypeii, symObjAddr: 0x0, symBinAddr: 0x100011DDC, symSize: 0x70 }
  - { offsetInCU: 0x54F7, offset: 0x23785, size: 0x8, addend: 0x0, symName: __ZNSt3__16vectorINS0_IbNS_9allocatorIbEEEENS1_IS3_EEEC1ERKS5_, symObjAddr: 0x70, symBinAddr: 0x100011E4C, symSize: 0x34 }
  - { offsetInCU: 0x5532, offset: 0x237C0, size: 0x8, addend: 0x0, symName: __ZN15CelestialObjectC1ERKNSt3__16vectorINS1_IbNS0_9allocatorIbEEEENS2_IS4_EEEE10ObjectTypeii, symObjAddr: 0xA4, symBinAddr: 0x100011E80, symSize: 0x4C }
  - { offsetInCU: 0x5596, offset: 0x23824, size: 0x8, addend: 0x0, symName: __ZN15CelestialObjectC2EPKS_, symObjAddr: 0xF0, symBinAddr: 0x100011ECC, symSize: 0x1CC }
  - { offsetInCU: 0x55D0, offset: 0x2385E, size: 0x8, addend: 0x0, symName: __ZN15CelestialObjectC1EPKS_, symObjAddr: 0x2BC, symBinAddr: 0x100012098, symSize: 0x34 }
  - { offsetInCU: 0x560A, offset: 0x23898, size: 0x8, addend: 0x0, symName: __ZN15CelestialObject18generate_rotationsEv, symObjAddr: 0x31C, symBinAddr: 0x1000120CC, symSize: 0x290 }
  - { offsetInCU: 0x5697, offset: 0x23925, size: 0x8, addend: 0x0, symName: __ZN15CelestialObject16rotate_clockwiseERKNSt3__16vectorINS1_IbNS0_9allocatorIbEEEENS2_IS4_EEEE, symObjAddr: 0x5AC, symBinAddr: 0x10001235C, symSize: 0x228 }
  - { offsetInCU: 0x5722, offset: 0x239B0, size: 0x8, addend: 0x0, symName: __ZNSt3__16vectorINS0_IbNS_9allocatorIbEEEENS1_IS3_EEEaSB8ne180100EOS5_, symObjAddr: 0x870, symBinAddr: 0x100012620, symSize: 0x34 }
  - { offsetInCU: 0x5758, offset: 0x239E6, size: 0x8, addend: 0x0, symName: __ZNKSt3__16vectorINS0_IbNS_9allocatorIbEEEENS1_IS3_EEEixB8ne180100Em, symObjAddr: 0x8CC, symBinAddr: 0x100012654, symSize: 0x2C }
  - { offsetInCU: 0x578F, offset: 0x23A1D, size: 0x8, addend: 0x0, symName: __ZNSt3__16vectorIbNS_9allocatorIbEEEC1EmRKb, symObjAddr: 0x95C, symBinAddr: 0x100012680, symSize: 0x3C }
  - { offsetInCU: 0x57D9, offset: 0x23A67, size: 0x8, addend: 0x0, symName: __ZNSt3__16vectorINS0_IbNS_9allocatorIbEEEENS1_IS3_EEEC1EmRKS3_, symObjAddr: 0x998, symBinAddr: 0x1000126BC, symSize: 0x3C }
  - { offsetInCU: 0x5823, offset: 0x23AB1, size: 0x8, addend: 0x0, symName: __ZNKSt3__16vectorIbNS_9allocatorIbEEEixB8ne180100Em, symObjAddr: 0xA00, symBinAddr: 0x1000126F8, symSize: 0x3C }
  - { offsetInCU: 0x5858, offset: 0x23AE6, size: 0x8, addend: 0x0, symName: __ZN15CelestialObject16delete_rotationsEPS_, symObjAddr: 0xB3C, symBinAddr: 0x100012734, symSize: 0xD8 }
  - { offsetInCU: 0x58A7, offset: 0x23B35, size: 0x8, addend: 0x0, symName: __ZN15CelestialObjectD1Ev, symObjAddr: 0xC14, symBinAddr: 0x10001280C, symSize: 0x2C }
  - { offsetInCU: 0x58D3, offset: 0x23B61, size: 0x8, addend: 0x0, symName: __ZN15CelestialObjectD2Ev, symObjAddr: 0xC40, symBinAddr: 0x100012838, symSize: 0x34 }
  - { offsetInCU: 0x58FF, offset: 0x23B8D, size: 0x8, addend: 0x0, symName: __ZNSt3__16vectorINS0_IbNS_9allocatorIbEEEENS1_IS3_EEEC2ERKS5_, symObjAddr: 0xCB8, symBinAddr: 0x10001286C, symSize: 0x94 }
  - { offsetInCU: 0x5944, offset: 0x23BD2, size: 0x8, addend: 0x0, symName: __ZNSt3__116allocator_traitsINS_9allocatorINS_6vectorIbNS1_IbEEEEEEE37select_on_container_copy_constructionB8ne180100IS5_vvEES5_RKS5_, symObjAddr: 0xD4C, symBinAddr: 0x100012900, symSize: 0x10 }
  - { offsetInCU: 0x597D, offset: 0x23C0B, size: 0x8, addend: 0x0, symName: __ZNSt3__117__compressed_pairIPNS_6vectorIbNS_9allocatorIbEEEENS2_IS4_EEEC1B8ne180100IDnS6_EEOT_OT0_, symObjAddr: 0xD84, symBinAddr: 0x100012910, symSize: 0x3C }
  - { offsetInCU: 0x59D5, offset: 0x23C63, size: 0x8, addend: 0x0, symName: __ZNSt3__16vectorINS0_IbNS_9allocatorIbEEEENS1_IS3_EEE16__init_with_sizeB8ne180100IPS3_S7_EEvT_T0_m, symObjAddr: 0xDC0, symBinAddr: 0x10001294C, symSize: 0xB8 }
  - { offsetInCU: 0x5A49, offset: 0x23CD7, size: 0x8, addend: 0x0, symName: __ZNSt3__117__compressed_pairIPNS_6vectorIbNS_9allocatorIbEEEENS2_IS4_EEEC2B8ne180100IDnS6_EEOT_OT0_, symObjAddr: 0xEB0, symBinAddr: 0x100012A04, symSize: 0x44 }
  - { offsetInCU: 0x5AA1, offset: 0x23D2F, size: 0x8, addend: 0x0, symName: __ZNSt3__122__compressed_pair_elemINS_9allocatorINS_6vectorIbNS1_IbEEEEEELi1ELb1EEC2B8ne180100IS5_vEEOT_, symObjAddr: 0xF10, symBinAddr: 0x100012A48, symSize: 0x18 }
  - { offsetInCU: 0x5AE3, offset: 0x23D71, size: 0x8, addend: 0x0, symName: __ZNSt3__128__exception_guard_exceptionsINS_6vectorINS1_IbNS_9allocatorIbEEEENS2_IS4_EEE16__destroy_vectorEE10__completeB8ne180100Ev, symObjAddr: 0x10DC, symBinAddr: 0x100012AA0, symSize: 0x1C }
  - { offsetInCU: 0x5B09, offset: 0x23D97, size: 0x8, addend: 0x0, symName: __ZNSt3__128__exception_guard_exceptionsINS_6vectorINS1_IbNS_9allocatorIbEEEENS2_IS4_EEE16__destroy_vectorEED1B8ne180100Ev, symObjAddr: 0x10F8, symBinAddr: 0x100012ABC, symSize: 0x2C }
  - { offsetInCU: 0x5B33, offset: 0x23DC1, size: 0x8, addend: 0x0, symName: __ZNSt3__128__exception_guard_exceptionsINS_6vectorINS1_IbNS_9allocatorIbEEEENS2_IS4_EEE16__destroy_vectorEEC1B8ne180100ES7_, symObjAddr: 0x1124, symBinAddr: 0x100012AE8, symSize: 0x34 }
  - { offsetInCU: 0x5B6B, offset: 0x23DF9, size: 0x8, addend: 0x0, symName: __ZNSt3__128__exception_guard_exceptionsINS_6vectorINS1_IbNS_9allocatorIbEEEENS2_IS4_EEE16__destroy_vectorEEC2B8ne180100ES7_, symObjAddr: 0x1158, symBinAddr: 0x100012B1C, symSize: 0x24 }
  - { offsetInCU: 0x5BC6, offset: 0x23E54, size: 0x8, addend: 0x0, symName: __ZNSt3__128__exception_guard_exceptionsINS_6vectorINS1_IbNS_9allocatorIbEEEENS2_IS4_EEE16__destroy_vectorEED2B8ne180100Ev, symObjAddr: 0x3234, symBinAddr: 0x100012B40, symSize: 0x50 }
  - { offsetInCU: 0x5BF0, offset: 0x23E7E, size: 0x8, addend: 0x0, symName: __ZNKSt3__16vectorINS0_IbNS_9allocatorIbEEEENS1_IS3_EEE5beginB8ne180100Ev, symObjAddr: 0x35FC, symBinAddr: 0x100012BE0, symSize: 0x30 }
  - { offsetInCU: 0x5C17, offset: 0x23EA5, size: 0x8, addend: 0x0, symName: __ZNKSt3__16vectorINS0_IbNS_9allocatorIbEEEENS1_IS3_EEE3endB8ne180100Ev, symObjAddr: 0x362C, symBinAddr: 0x100012C10, symSize: 0x30 }
  - { offsetInCU: 0x5C48, offset: 0x23ED6, size: 0x8, addend: 0x0, symName: __ZNKSt3__110__equal_toclB8ne180100INS_6vectorIbNS_9allocatorIbEEEES5_EEbRKT_RKT0_, symObjAddr: 0x37A8, symBinAddr: 0x100012D8C, symSize: 0x34 }
  - { offsetInCU: 0x5CA6, offset: 0x23F34, size: 0x8, addend: 0x0, symName: __ZNKSt3__16__lessIvvEclB8ne180100IllEEbRKT_RKT0_, symObjAddr: 0x41EC, symBinAddr: 0x1000137D0, symSize: 0x34 }
  - { offsetInCU: 0x5CFB, offset: 0x23F89, size: 0x8, addend: 0x0, symName: __ZNSt3__118__unwrap_iter_implINS_11__wrap_iterIPKNS_6vectorIbNS_9allocatorIbEEEEEELb1EE8__unwrapB8ne180100ES8_, symObjAddr: 0x4220, symBinAddr: 0x100013804, symSize: 0x28 }
  - { offsetInCU: 0x5D28, offset: 0x23FB6, size: 0x8, addend: 0x0, symName: __ZNSt3__119__to_address_helperINS_11__wrap_iterIPKNS_6vectorIbNS_9allocatorIbEEEEEEvE6__callB8ne180100ERKS8_, symObjAddr: 0x426C, symBinAddr: 0x100013850, symSize: 0x30 }
  - { offsetInCU: 0x5D4B, offset: 0x23FD9, size: 0x8, addend: 0x0, symName: __ZNSt3__114pointer_traitsINS_11__wrap_iterIPKNS_6vectorIbNS_9allocatorIbEEEEEEE10to_addressB8ne180100ES8_, symObjAddr: 0x429C, symBinAddr: 0x100013880, symSize: 0x2C }
  - { offsetInCU: 0x5D6D, offset: 0x23FFB, size: 0x8, addend: 0x0, symName: __ZNKSt3__111__wrap_iterIPKNS_6vectorIbNS_9allocatorIbEEEEE4baseB8ne180100Ev, symObjAddr: 0x42DC, symBinAddr: 0x1000138C0, symSize: 0x18 }
  - { offsetInCU: 0x5D93, offset: 0x24021, size: 0x8, addend: 0x0, symName: __ZNKSt3__16vectorINS0_IbNS_9allocatorIbEEEENS1_IS3_EEE11__make_iterB8ne180100EPKS3_, symObjAddr: 0x42F4, symBinAddr: 0x1000138D8, symSize: 0x30 }
  - { offsetInCU: 0x5DC8, offset: 0x24056, size: 0x8, addend: 0x0, symName: __ZNSt3__111__wrap_iterIPKNS_6vectorIbNS_9allocatorIbEEEEEC1B8ne180100ES6_, symObjAddr: 0x4324, symBinAddr: 0x100013908, symSize: 0x34 }
  - { offsetInCU: 0x5E00, offset: 0x2408E, size: 0x8, addend: 0x0, symName: __ZNSt3__111__wrap_iterIPKNS_6vectorIbNS_9allocatorIbEEEEEC2B8ne180100ES6_, symObjAddr: 0x4358, symBinAddr: 0x10001393C, symSize: 0x20 }
  - { offsetInCU: 0x5E38, offset: 0x240C6, size: 0x8, addend: 0x0, symName: __ZNSt3__16vectorINS0_IbNS_9allocatorIbEEEENS1_IS3_EEE13__move_assignERS5_NS_17integral_constantIbLb1EEE, symObjAddr: 0x4378, symBinAddr: 0x10001395C, symSize: 0x94 }
  - { offsetInCU: 0x5E79, offset: 0x24107, size: 0x8, addend: 0x0, symName: __ZNSt3__16vectorINS0_IbNS_9allocatorIbEEEENS1_IS3_EEE19__move_assign_allocB8ne180100ERS5_, symObjAddr: 0x44A0, symBinAddr: 0x1000139F0, symSize: 0x2C }
  - { offsetInCU: 0x5EAE, offset: 0x2413C, size: 0x8, addend: 0x0, symName: __ZNSt3__16vectorINS0_IbNS_9allocatorIbEEEENS1_IS3_EEE19__move_assign_allocB8ne180100ERS5_NS_17integral_constantIbLb1EEE, symObjAddr: 0x44CC, symBinAddr: 0x100013A1C, symSize: 0x38 }
  - { offsetInCU: 0x5EEE, offset: 0x2417C, size: 0x8, addend: 0x0, symName: __ZNSt3__16vectorIbNS_9allocatorIbEEEC2EmRKb, symObjAddr: 0x4504, symBinAddr: 0x100013A54, symSize: 0x90 }
  - { offsetInCU: 0x5F3D, offset: 0x241CB, size: 0x8, addend: 0x0, symName: __ZNSt3__16vectorIbNS_9allocatorIbEEE18__construct_at_endB8ne180100Emb, symObjAddr: 0x45D0, symBinAddr: 0x100013AE4, symSize: 0x108 }
  - { offsetInCU: 0x5F91, offset: 0x2421F, size: 0x8, addend: 0x0, symName: __ZNSt3__16vectorINS0_IbNS_9allocatorIbEEEENS1_IS3_EEEC2EmRKS3_, symObjAddr: 0x4D2C, symBinAddr: 0x100013FF8, symSize: 0xDC }
  - { offsetInCU: 0x5FF0, offset: 0x2427E, size: 0x8, addend: 0x0, symName: __ZNSt3__16vectorINS0_IbNS_9allocatorIbEEEENS1_IS3_EEE18__construct_at_endEmRKS3_, symObjAddr: 0x4E44, symBinAddr: 0x1000140D4, symSize: 0xD0 }
  - { offsetInCU: 0x6070, offset: 0x242FE, size: 0x8, addend: 0x0, symName: __ZNKSt3__16vectorIbNS_9allocatorIbEEE10__make_refB8ne180100Em, symObjAddr: 0x5084, symBinAddr: 0x1000141A4, symSize: 0x60 }
  - { offsetInCU: 0x9174, offset: 0x2D4D9, size: 0x8, addend: 0x0, symName: __ZN14GameControllerC2ERKNSt3__112basic_stringIcNS0_11char_traitsIcEENS0_9allocatorIcEEEES8_S8_S8_S8_, symObjAddr: 0x0, symBinAddr: 0x100014204, symSize: 0xA0 }
  - { offsetInCU: 0x91E6, offset: 0x2D54B, size: 0x8, addend: 0x0, symName: __ZN14GameControllerC1ERKNSt3__112basic_stringIcNS0_11char_traitsIcEENS0_9allocatorIcEEEES8_S8_S8_S8_, symObjAddr: 0xA0, symBinAddr: 0x1000142A4, symSize: 0x54 }
  - { offsetInCU: 0x9258, offset: 0x2D5BD, size: 0x8, addend: 0x0, symName: __ZN14GameController4playERKNSt3__112basic_stringIcNS0_11char_traitsIcEENS0_9allocatorIcEEEE, symObjAddr: 0xF4, symBinAddr: 0x1000142F8, symSize: 0x54C }
  - { offsetInCU: 0x9433, offset: 0x2D798, size: 0x8, addend: 0x0, symName: __ZN14GameController15process_commandERKNSt3__112basic_stringIcNS0_11char_traitsIcEENS0_9allocatorIcEEEE, symObjAddr: 0x9CC, symBinAddr: 0x100014844, symSize: 0x1D4 }
  - { offsetInCU: 0x946E, offset: 0x2D7D3, size: 0x8, addend: 0x0, symName: __ZN14GameControllerD2Ev, symObjAddr: 0xE24, symBinAddr: 0x100014A18, symSize: 0x74 }
  - { offsetInCU: 0x949A, offset: 0x2D7FF, size: 0x8, addend: 0x0, symName: __ZN14GameControllerD1Ev, symObjAddr: 0xE98, symBinAddr: 0x100014A8C, symSize: 0x2C }
  - { offsetInCU: 0x94C6, offset: 0x2D82B, size: 0x8, addend: 0x0, symName: __ZN14GameControllerD0Ev, symObjAddr: 0xEC4, symBinAddr: 0x100014AB8, symSize: 0x30 }
  - { offsetInCU: 0x7306, offset: 0x34B80, size: 0x8, addend: 0x0, symName: __ZN11Leaderboard14read_from_fileERKNSt3__112basic_stringIcNS0_11char_traitsIcEENS0_9allocatorIcEEEE, symObjAddr: 0x0, symBinAddr: 0x100014AE8, symSize: 0x2FC }
  - { offsetInCU: 0x74C1, offset: 0x34D3B, size: 0x8, addend: 0x0, symName: __ZNSt3__114basic_ofstreamIcNS_11char_traitsIcEEEC1ERKNS_12basic_stringIcS2_NS_9allocatorIcEEEEj, symObjAddr: 0x5AC, symBinAddr: 0x100014DE4, symSize: 0x16C }
  - { offsetInCU: 0x750B, offset: 0x34D85, size: 0x8, addend: 0x0, symName: __ZNSt3__114basic_ofstreamIcNS_11char_traitsIcEEE5closeEv, symObjAddr: 0x718, symBinAddr: 0x100014F50, symSize: 0x58 }
  - { offsetInCU: 0x7538, offset: 0x34DB2, size: 0x8, addend: 0x0, symName: __ZNSt3__114basic_ofstreamIcNS_11char_traitsIcEEED1Ev, symObjAddr: 0x770, symBinAddr: 0x100014FA8, symSize: 0x40 }
  - { offsetInCU: 0x75B5, offset: 0x34E2F, size: 0x8, addend: 0x0, symName: __ZNSt3__119basic_istringstreamIcNS_11char_traitsIcEENS_9allocatorIcEEEC1B8ne180100ERKNS_12basic_stringIcS2_S4_EEj, symObjAddr: 0x864, symBinAddr: 0x100014FE8, symSize: 0xFC }
  - { offsetInCU: 0x75FC, offset: 0x34E76, size: 0x8, addend: 0x0, symName: __ZN11Leaderboard6insertEP16LeaderboardEntry, symObjAddr: 0x968, symBinAddr: 0x1000150E4, symSize: 0x1D8 }
  - { offsetInCU: 0x768C, offset: 0x34F06, size: 0x8, addend: 0x0, symName: __ZNSt3__119basic_istringstreamIcNS_11char_traitsIcEENS_9allocatorIcEEED1Ev, symObjAddr: 0xB40, symBinAddr: 0x1000152BC, symSize: 0x40 }
  - { offsetInCU: 0x76BD, offset: 0x34F37, size: 0x8, addend: 0x0, symName: __ZN11Leaderboard13write_to_fileERKNSt3__112basic_stringIcNS0_11char_traitsIcEENS0_9allocatorIcEEEE, symObjAddr: 0xC18, symBinAddr: 0x1000152FC, symSize: 0x1E0 }
  - { offsetInCU: 0x7713, offset: 0x34F8D, size: 0x8, addend: 0x0, symName: __ZNKSt3__114basic_ofstreamIcNS_11char_traitsIcEEE7is_openEv, symObjAddr: 0xDF8, symBinAddr: 0x1000154DC, symSize: 0x2C }
  - { offsetInCU: 0x773A, offset: 0x34FB4, size: 0x8, addend: 0x0, symName: __ZN11Leaderboard17print_leaderboardEv, symObjAddr: 0xE24, symBinAddr: 0x100015508, symSize: 0x140 }
  - { offsetInCU: 0x77A9, offset: 0x35023, size: 0x8, addend: 0x0, symName: __ZN16LeaderboardEntryD1Ev, symObjAddr: 0xF64, symBinAddr: 0x100015648, symSize: 0x2C }
  - { offsetInCU: 0x77D5, offset: 0x3504F, size: 0x8, addend: 0x0, symName: __ZNK11Leaderboard14get_high_scoreEv, symObjAddr: 0xF90, symBinAddr: 0x100015674, symSize: 0x50 }
  - { offsetInCU: 0x77FD, offset: 0x35077, size: 0x8, addend: 0x0, symName: __ZN11Leaderboard14set_high_scoreEm, symObjAddr: 0xFE0, symBinAddr: 0x1000156C4, symSize: 0x44 }
  - { offsetInCU: 0x7833, offset: 0x350AD, size: 0x8, addend: 0x0, symName: __ZN11LeaderboardD2Ev, symObjAddr: 0x1024, symBinAddr: 0x100015708, symSize: 0xA0 }
  - { offsetInCU: 0x7897, offset: 0x35111, size: 0x8, addend: 0x0, symName: __ZN11LeaderboardD1Ev, symObjAddr: 0x10C4, symBinAddr: 0x1000157A8, symSize: 0x2C }
  - { offsetInCU: 0x78C3, offset: 0x3513D, size: 0x8, addend: 0x0, symName: __ZN11LeaderboardD0Ev, symObjAddr: 0x10F0, symBinAddr: 0x1000157D4, symSize: 0x30 }
  - { offsetInCU: 0x78EF, offset: 0x35169, size: 0x8, addend: 0x0, symName: __ZNSt3__114basic_ofstreamIcNS_11char_traitsIcEEED2Ev, symObjAddr: 0x1120, symBinAddr: 0x100015804, symSize: 0x64 }
  - { offsetInCU: 0x7929, offset: 0x351A3, size: 0x8, addend: 0x0, symName: __ZTv0_n24_NSt3__114basic_ofstreamIcNS_11char_traitsIcEEED1Ev, symObjAddr: 0x1184, symBinAddr: 0x100015868, symSize: 0x28 }
  - { offsetInCU: 0x7940, offset: 0x351BA, size: 0x8, addend: 0x0, symName: __ZNSt3__119basic_istringstreamIcNS_11char_traitsIcEENS_9allocatorIcEEED2Ev, symObjAddr: 0x11AC, symBinAddr: 0x100015890, symSize: 0x64 }
  - { offsetInCU: 0x797A, offset: 0x351F4, size: 0x8, addend: 0x0, symName: __ZTv0_n24_NSt3__119basic_istringstreamIcNS_11char_traitsIcEENS_9allocatorIcEEED1Ev, symObjAddr: 0x1210, symBinAddr: 0x1000158F4, symSize: 0x28 }
  - { offsetInCU: 0x7996, offset: 0x35210, size: 0x8, addend: 0x0, symName: __ZNSt3__115basic_stringbufIcNS_11char_traitsIcEENS_9allocatorIcEEED1Ev, symObjAddr: 0x1238, symBinAddr: 0x10001591C, symSize: 0x2C }
  - { offsetInCU: 0x79C3, offset: 0x3523D, size: 0x8, addend: 0x0, symName: __ZNSt3__115basic_stringbufIcNS_11char_traitsIcEENS_9allocatorIcEEED2Ev, symObjAddr: 0x1264, symBinAddr: 0x100015948, symSize: 0x48 }
  - { offsetInCU: 0x79F0, offset: 0x3526A, size: 0x8, addend: 0x0, symName: __ZN16LeaderboardEntryD2Ev, symObjAddr: 0x1338, symBinAddr: 0x100015990, symSize: 0x30 }
  - { offsetInCU: 0x7A3F, offset: 0x352B9, size: 0x8, addend: 0x0, symName: __ZNSt3__113basic_ostreamIcNS_11char_traitsIcEEEC2B8ne180100EPNS_15basic_streambufIcS2_EE, symObjAddr: 0x2098, symBinAddr: 0x1000159C0, symSize: 0x60 }
  - { offsetInCU: 0x7AA7, offset: 0x35321, size: 0x8, addend: 0x0, symName: __ZNSt3__115basic_stringbufIcNS_11char_traitsIcEENS_9allocatorIcEEEC1B8ne180100ERKNS_12basic_stringIcS2_S4_EEj, symObjAddr: 0x2970, symBinAddr: 0x100015A20, symSize: 0x3C }
  - { offsetInCU: 0x7AEF, offset: 0x35369, size: 0x8, addend: 0x0, symName: __ZNSt3__115basic_stringbufIcNS_11char_traitsIcEENS_9allocatorIcEEEC2B8ne180100ERKNS_12basic_stringIcS2_S4_EEj, symObjAddr: 0x29AC, symBinAddr: 0x100015A5C, symSize: 0xB4 }
  - { offsetInCU: 0x7B36, offset: 0x353B0, size: 0x8, addend: 0x0, symName: __ZNKSt3__112basic_stringIcNS_11char_traitsIcEENS_9allocatorIcEEE13get_allocatorB8ne180100Ev, symObjAddr: 0x2A60, symBinAddr: 0x100015B10, symSize: 0x24 }
  - { offsetInCU: 0x7B5D, offset: 0x353D7, size: 0x8, addend: 0x0, symName: __ZNSt3__112basic_stringIcNS_11char_traitsIcEENS_9allocatorIcEEEC1B8ne180100ERKS4_, symObjAddr: 0x2A84, symBinAddr: 0x100015B34, symSize: 0x34 }
  - { offsetInCU: 0x7B96, offset: 0x35410, size: 0x8, addend: 0x0, symName: __ZNSt3__112basic_stringIcNS_11char_traitsIcEENS_9allocatorIcEEEC2B8ne180100ERKS4_, symObjAddr: 0x2AB8, symBinAddr: 0x100015B68, symSize: 0x4C }
  - { offsetInCU: 0x7BCF, offset: 0x35449, size: 0x8, addend: 0x0, symName: __ZNSt3__117__compressed_pairINS_12basic_stringIcNS_11char_traitsIcEENS_9allocatorIcEEE5__repES5_EC1B8ne180100INS_16__value_init_tagERKS5_EEOT_OT0_, symObjAddr: 0x2B04, symBinAddr: 0x100015BB4, symSize: 0x3C }
  - { offsetInCU: 0x7C27, offset: 0x354A1, size: 0x8, addend: 0x0, symName: __ZNSt3__117__compressed_pairINS_12basic_stringIcNS_11char_traitsIcEENS_9allocatorIcEEE5__repES5_EC2B8ne180100INS_16__value_init_tagERKS5_EEOT_OT0_, symObjAddr: 0x2B40, symBinAddr: 0x100015BF0, symSize: 0x40 }
  - { offsetInCU: 0x7C7F, offset: 0x354F9, size: 0x8, addend: 0x0, symName: __ZNSt3__122__compressed_pair_elemINS_9allocatorIcEELi1ELb1EEC2B8ne180100IRKS2_vEEOT_, symObjAddr: 0x2B80, symBinAddr: 0x100015C30, symSize: 0x18 }
  - { offsetInCU: 0x26, offset: 0x3558F, size: 0x8, addend: 0x0, symName: __ZN16LeaderboardEntryC2EmlRKNSt3__112basic_stringIcNS0_11char_traitsIcEENS0_9allocatorIcEEEE, symObjAddr: 0x0, symBinAddr: 0x100015C48, symSize: 0x54 }
  - { offsetInCU: 0x4AB4, offset: 0x3A01D, size: 0x8, addend: 0x0, symName: __ZN16LeaderboardEntryC2EmlRKNSt3__112basic_stringIcNS0_11char_traitsIcEENS0_9allocatorIcEEEE, symObjAddr: 0x0, symBinAddr: 0x100015C48, symSize: 0x54 }
  - { offsetInCU: 0x4B0A, offset: 0x3A073, size: 0x8, addend: 0x0, symName: __ZN16LeaderboardEntryC1EmlRKNSt3__112basic_stringIcNS0_11char_traitsIcEENS0_9allocatorIcEEEE, symObjAddr: 0x54, symBinAddr: 0x100015C9C, symSize: 0x44 }
  - { offsetInCU: 0x625D, offset: 0x40326, size: 0x8, addend: 0x0, symName: __ZN6PlayerC2ERKNSt3__16vectorINS1_IbNS0_9allocatorIbEEEENS2_IS4_EEEEiiRKNS0_12basic_stringIcNS0_11char_traitsIcEENS2_IcEEEEii, symObjAddr: 0x0, symBinAddr: 0x100015CE0, symSize: 0xA8 }
  - { offsetInCU: 0x62DD, offset: 0x403A6, size: 0x8, addend: 0x0, symName: __ZN6PlayerC1ERKNSt3__16vectorINS1_IbNS0_9allocatorIbEEEENS2_IS4_EEEEiiRKNS0_12basic_stringIcNS0_11char_traitsIcEENS2_IcEEEEii, symObjAddr: 0x108, symBinAddr: 0x100015D88, symSize: 0x5C }
  - { offsetInCU: 0x635D, offset: 0x40426, size: 0x8, addend: 0x0, symName: __ZN6Player9move_leftEv, symObjAddr: 0x164, symBinAddr: 0x100015DE4, symSize: 0x4C }
  - { offsetInCU: 0x6385, offset: 0x4044E, size: 0x8, addend: 0x0, symName: __ZN6Player10move_rightEi, symObjAddr: 0x1B0, symBinAddr: 0x100015E30, symSize: 0x60 }
  - { offsetInCU: 0x63BB, offset: 0x40484, size: 0x8, addend: 0x0, symName: __ZN6Player7move_upEv, symObjAddr: 0x210, symBinAddr: 0x100015E90, symSize: 0x4C }
  - { offsetInCU: 0x63E3, offset: 0x404AC, size: 0x8, addend: 0x0, symName: __ZN6Player9move_downEi, symObjAddr: 0x25C, symBinAddr: 0x100015EDC, symSize: 0x60 }
  - { offsetInCU: 0x6419, offset: 0x404E2, size: 0x8, addend: 0x0, symName: __ZN6Player4fireEv, symObjAddr: 0x2BC, symBinAddr: 0x100015F3C, symSize: 0x6C }
  - { offsetInCU: 0x6441, offset: 0x4050A, size: 0x8, addend: 0x0, symName: __ZN6Player6reloadEv, symObjAddr: 0x328, symBinAddr: 0x100015FA8, symSize: 0x1C }
  - { offsetInCU: 0x6469, offset: 0x40532, size: 0x8, addend: 0x0, symName: __ZNK6Player8is_aliveEv, symObjAddr: 0x344, symBinAddr: 0x100015FC4, symSize: 0x24 }
  - { offsetInCU: 0x6491, offset: 0x4055A, size: 0x8, addend: 0x0, symName: __ZN6Player14decrease_livesEv, symObjAddr: 0x368, symBinAddr: 0x100015FE8, symSize: 0x40 }
  - { offsetInCU: 0x64B9, offset: 0x40582, size: 0x8, addend: 0x0, symName: __ZN6Player14increase_livesEv, symObjAddr: 0x3A8, symBinAddr: 0x100016028, symSize: 0x20 }
  - { offsetInCU: 0x64E1, offset: 0x405AA, size: 0x8, addend: 0x0, symName: __ZN6Player5get_xEv, symObjAddr: 0x3C8, symBinAddr: 0x100016048, symSize: 0x18 }
  - { offsetInCU: 0x6509, offset: 0x405D2, size: 0x8, addend: 0x0, symName: __ZN6Player5get_yEv, symObjAddr: 0x3E0, symBinAddr: 0x100016060, symSize: 0x18 }
  - { offsetInCU: 0x26, offset: 0x4064D, size: 0x8, addend: 0x0, symName: _main, symObjAddr: 0x0, symBinAddr: 0x100016078, symSize: 0x20C }
  - { offsetInCU: 0x5F72, offset: 0x46599, size: 0x8, addend: 0x0, symName: _main, symObjAddr: 0x0, symBinAddr: 0x100016078, symSize: 0x20C }
  - { offsetInCU: 0x60B8, offset: 0x466DF, size: 0x8, addend: 0x0, symName: __ZNSt3__112basic_stringIcNS_11char_traitsIcEENS_9allocatorIcEEEC1B8ne180100ILi0EEEPKc, symObjAddr: 0x20C, symBinAddr: 0x100016284, symSize: 0x34 }
  - { offsetInCU: 0x60F7, offset: 0x4671E, size: 0x8, addend: 0x0, symName: __ZNSt3__112basic_stringIcNS_11char_traitsIcEENS_9allocatorIcEEEC2B8ne180100ILi0EEEPKc, symObjAddr: 0x240, symBinAddr: 0x1000162B8, symSize: 0x58 }
...
